(dp0
S'case_user_dict'
p1
(dp2
V52fb018f-703b-4c18-b501-28880b58269f
p3
V8a7cc079078e17fd20e068eb4bb0f056
p4
sV53c2d673-9239-4faa-b5a1-bf3387c46cdf
p5
V8a7cc079078e17fd20e068eb4bb0f056
p6
sV4dcbd724-75a3-4ddf-8672-c435cd6e27e4
p7
V8a7cc079078e17fd20e068eb4bb0f056
p8
sV75e44a2a-40e5-4365-ad4d-109dab628c22
p9
V8a7cc079078e17fd20e068eb4bb0f056
p10
sV6af0a961-28ed-412d-b0e6-6c0cb315bf67
p11
V8a7cc079078e17fd20e068eb4bb0f056
p12
sV40417892-3bc9-4a2e-8bbf-01011d645cf5
p13
V8a7cc079078e17fd20e068eb4bb0f056
p14
sV69ec51cc-9f85-4bc5-971c-de6974535dc5
p15
V8a7cc079078e17fd20e068eb4bb0f056
p16
sVd6b3795f-8c83-4ed0-ab1a-ea3012357550
p17
V8a7cc079078e17fd20e068eb4bb0f056
p18
sV8f205c48-18a1-469c-b70f-d40f383fb52d
p19
V8a7cc079078e17fd20e068eb4bb0f056
p20
sVd0e7bd9c-b6e1-482d-be6a-2e6cef8b0f7c
p21
V8a7cc079078e17fd20e068eb4bb0f056
p22
sVd1f42238-bb7c-411f-92f4-0367b41ef485
p23
V8a7cc079078e17fd20e068eb4bb0f056
p24
sVde046902-60fc-4e43-8fe6-96463c4713a5
p25
V8a7cc079078e17fd20e068eb4bb0f056
p26
sVd8b69494-23dc-4a3d-ab3c-1778755c60e4
p27
V8a7cc079078e17fd20e068eb4bb0f056
p28
sV910af36d-5840-45ae-8878-a5b70af3f007
p29
V8a7cc079078e17fd20e068eb4bb0f056
p30
sV3a3909c9-f902-467c-a6ce-ee798915f0a5
p31
V8a7cc079078e17fd20e068eb4bb0f056
p32
sVd8e8ef4e-4602-47da-a5e7-a04f43dfc79c
p33
V8a7cc079078e17fd20e068eb4bb0f056
p34
sVded9d897-fadc-447f-9b2b-1a2f03c1be3c
p35
V8a7cc079078e17fd20e068eb4bb0f056
p36
sV20f4c6b7-3afd-4a98-9d5e-471ca3bf0bf3
p37
V8a7cc079078e17fd20e068eb4bb0f056
p38
sVb7760766-a533-47da-9ae1-42bd94951f3d
p39
V8a7cc079078e17fd20e068eb4bb0f056
p40
sV7f6ea44d-4a8e-4ecb-a166-248c401a5b86
p41
V8a7cc079078e17fd20e068eb4bb0f056
p42
sV04b4c57c-032f-417e-8c5d-fc3610cc005e
p43
V8a7cc079078e17fd20e068eb4bb0f056
p44
sV19b4496b-9a52-4a8f-9d9a-89871134900a
p45
V8a7cc079078e17fd20e068eb4bb0f056
p46
sV83b033a8-e745-4de0-8f9d-b28026e55edd
p47
V8a7cc079078e17fd20e068eb4bb0f056
p48
sVbd1edf52-871e-4e90-9c32-c3f0667ed4ac
p49
V8a7cc079078e17fd20e068eb4bb0f056
p50
sV71d818e0-ff42-4e1a-adc2-bbbe5f8d3401
p51
V8a7cc079078e17fd20e068eb4bb0f056
p52
sV6c46b9ae-3666-46ad-8ada-390cafea667e
p53
V8a7cc079078e17fd20e068eb4bb0f056
p54
sVbc907752-47b5-4544-a6bd-0c380d4fc160
p55
V8a7cc079078e17fd20e068eb4bb0f056
p56
sVe8deb8d3-25fd-42b2-bd05-cbaf50921498
p57
V8a7cc079078e17fd20e068eb4bb0f056
p58
sVee5ab275-17aa-4c3f-8c7d-78e3290dae83
p59
V8a7cc079078e17fd20e068eb4bb0f056
p60
sVd280c2ff-54f2-45d7-abed-22835a5e1e3b
p61
V8a7cc079078e17fd20e068eb4bb0f056
p62
sV5e4fe37b-ffa2-4baf-baa7-9959e0965eab
p63
V8a7cc079078e17fd20e068eb4bb0f056
p64
sV0a0c2770-9114-442f-a085-b30981c9ca38
p65
V8a7cc079078e17fd20e068eb4bb0f056
p66
sV99f80aa8-cbe4-496e-a754-9b19286b67ba
p67
V8a7cc079078e17fd20e068eb4bb0f056
p68
sVaf0ed04d-97d8-4fd0-941c-2b7b488cd2df
p69
V8a7cc079078e17fd20e068eb4bb0f056
p70
sV5f4e029e-6e14-401c-b616-9e2f79edeb4d
p71
V8a7cc079078e17fd20e068eb4bb0f056
p72
sVc5db4656-762d-46e4-8e75-1c8a99495453
p73
V8a7cc079078e17fd20e068eb4bb0f056
p74
sVe2ddba19-0c00-4264-97d6-617c3d57988b
p75
V8a7cc079078e17fd20e068eb4bb0f056
p76
sV9111efa9-65f4-4065-ba72-e14d18a26805
p77
V8a7cc079078e17fd20e068eb4bb0f056
p78
sVd2df222b-5681-40db-8783-47c6875be3b3
p79
V8a7cc079078e17fd20e068eb4bb0f056
p80
sV5c859175-e5b0-4445-8f5c-0f99c18d0e3d
p81
V8a7cc079078e17fd20e068eb4bb0f056
p82
sVf96171fb-6b77-415e-aed0-2a4a8e2e5672
p83
V8a7cc079078e17fd20e068eb4bb0f056
p84
sVe7eecc3e-bdf6-49e3-8ea9-b3728551e7b0
p85
V8a7cc079078e17fd20e068eb4bb0f056
p86
sV535d5990-ee10-43c2-8ae8-221c0e718ce8
p87
V8a7cc079078e17fd20e068eb4bb0f056
p88
sVadd7fc6d-deee-4baa-844c-b13135c6307c
p89
V8a7cc079078e17fd20e068eb4bb0f056
p90
sVe6c293fe-d749-48c4-9cf9-d6a6e929cb38
p91
V8a7cc079078e17fd20e068eb4bb0f056
p92
sV26f28db9-bbf1-4644-baeb-da2aa0a8dd33
p93
V8a7cc079078e17fd20e068eb4bb0f056
p94
sVa97568b7-6de3-4bbb-8f77-2274c3160715
p95
V8a7cc079078e17fd20e068eb4bb0f056
p96
sV63bc2e9a-aa2b-44f8-81b5-ef8eceb64295
p97
V8a7cc079078e17fd20e068eb4bb0f056
p98
sVf0deb715-e00f-4e03-947a-5a8660eab80a
p99
V8a7cc079078e17fd20e068eb4bb0f056
p100
sV528b53fe-241e-4799-8030-cfe9ed3b3ce2
p101
V8a7cc079078e17fd20e068eb4bb0f056
p102
sVe3ff2745-68f0-4813-b5af-bc739bbe1492
p103
V8a7cc079078e17fd20e068eb4bb0f056
p104
sV6cdb1f41-cc8d-4fc4-947c-a6edba1c3773
p105
V8a7cc079078e17fd20e068eb4bb0f056
p106
sVb7208f33-fd16-477d-b1ae-7b31a209adf2
p107
V8a7cc079078e17fd20e068eb4bb0f056
p108
sVdcc7d92b-1f68-4a54-b718-dab25a696a3b
p109
V8a7cc079078e17fd20e068eb4bb0f056
p110
sV7f798310-64cd-445d-a9a4-5ae37e24b2dd
p111
V8a7cc079078e17fd20e068eb4bb0f056
p112
sV4ab6519f-df24-40d0-aed7-1cf5c0ba52d5
p113
V8a7cc079078e17fd20e068eb4bb0f056
p114
sV30b4c37c-1421-4c5d-873a-504d5cba19f8
p115
V8a7cc079078e17fd20e068eb4bb0f056
p116
sV891e2356-fc94-444d-b507-9c6c9f3e10e5
p117
V8a7cc079078e17fd20e068eb4bb0f056
p118
sV8b7a83eb-fbca-4087-8ff0-da11f3a6c145
p119
V8a7cc079078e17fd20e068eb4bb0f056
p120
sV52943d54-a0e7-4558-b343-1eec89860239
p121
V8a7cc079078e17fd20e068eb4bb0f056
p122
sV48810349-e041-4e81-8abe-44d4ec4aeb94
p123
V8a7cc079078e17fd20e068eb4bb0f056
p124
sV9a3f04ed-8703-44f1-9082-b73542f91e8d
p125
V8a7cc079078e17fd20e068eb4bb0f056
p126
sV63ce5473-85d8-4d8b-9776-88c912112ee8
p127
V8a7cc079078e17fd20e068eb4bb0f056
p128
sVcef8e428-41cf-4229-b4e3-4acb650ebd7e
p129
V8a7cc079078e17fd20e068eb4bb0f056
p130
sV0dddc665-f059-496c-886a-88e59393e19d
p131
V8a7cc079078e17fd20e068eb4bb0f056
p132
sVed3d26b2-46cb-46b1-a5eb-038912dba75d
p133
V8a7cc079078e17fd20e068eb4bb0f056
p134
sVe44a4446-3a89-41fa-9301-daea40a706d4
p135
V8a7cc079078e17fd20e068eb4bb0f056
p136
sVcffc6a6f-c351-4bc9-9fe6-2a5c3ae50cc4
p137
V8a7cc079078e17fd20e068eb4bb0f056
p138
sV45409cb9-d3e4-4c60-81b1-1adda9f5fbb0
p139
V8a7cc079078e17fd20e068eb4bb0f056
p140
sVaab4d9b0-068d-4e75-85f3-9e97ff923f58
p141
V8a7cc079078e17fd20e068eb4bb0f056
p142
sVa479dc7d-2602-4fd9-a0ee-9d4536ed2aee
p143
V8a7cc079078e17fd20e068eb4bb0f056
p144
sV3a454312-8e4c-4594-a0c1-a1a14fd78e26
p145
V8a7cc079078e17fd20e068eb4bb0f056
p146
sV7b84f3df-e400-4e62-90bd-2b348edb7f2e
p147
V8a7cc079078e17fd20e068eb4bb0f056
p148
sV078bfd27-9368-4775-b0e8-1726d87361a2
p149
V8a7cc079078e17fd20e068eb4bb0f056
p150
sVfe07e07b-7864-4beb-9081-f7f5a70aeaec
p151
V8a7cc079078e17fd20e068eb4bb0f056
p152
sV7f3ea340-14dd-4f6b-be16-cbd5c1a5af73
p153
V8a7cc079078e17fd20e068eb4bb0f056
p154
sVbfd27e9a-7adc-4f8a-9b70-6aad9eed35eb
p155
V8a7cc079078e17fd20e068eb4bb0f056
p156
sVadb8df8c-5231-4f20-b5ee-5379261cb7ca
p157
V8a7cc079078e17fd20e068eb4bb0f056
p158
sVb35dd156-c037-42a1-8aad-a1fea314ad8c
p159
V8a7cc079078e17fd20e068eb4bb0f056
p160
sVe738e5a3-7f39-4eca-bf04-6edf8f593e86
p161
V8a7cc079078e17fd20e068eb4bb0f056
p162
sVc5d96c4a-8b22-4c41-b473-cda98eda1af0
p163
V8a7cc079078e17fd20e068eb4bb0f056
p164
sV59b74fdd-68c3-47a5-8225-9744708fe74f
p165
V8a7cc079078e17fd20e068eb4bb0f056
p166
sVf93b0be3-8d10-43b0-b3b6-4da2720720f8
p167
V8a7cc079078e17fd20e068eb4bb0f056
p168
sV1c50a855-b5f4-4991-b5da-51036354b904
p169
V8a7cc079078e17fd20e068eb4bb0f056
p170
sV28d8a9fd-db4a-4dad-b3f6-2df6eaec1653
p171
V8a7cc079078e17fd20e068eb4bb0f056
p172
sVea529d70-9dba-4e74-8851-cfbe0d48bf59
p173
V8a7cc079078e17fd20e068eb4bb0f056
p174
sVc1f43f17-0033-4f50-99fb-1c4fe0d5325b
p175
V8a7cc079078e17fd20e068eb4bb0f056
p176
sVf2fc6629-134e-4dec-aba0-1f7a9870b1af
p177
V8a7cc079078e17fd20e068eb4bb0f056
p178
sV40dad995-b381-4faa-976f-2f516c7511d8
p179
V8a7cc079078e17fd20e068eb4bb0f056
p180
sV178ce7db-edb2-4a88-a572-a3010eb804c2
p181
V8a7cc079078e17fd20e068eb4bb0f056
p182
sV1f5e3b40-1613-4e68-8436-71f2afa7ccfd
p183
V8a7cc079078e17fd20e068eb4bb0f056
p184
sV1cf1f277-afb3-43d3-8a69-e69e5ae4f7b2
p185
V8a7cc079078e17fd20e068eb4bb0f056
p186
sV4755d876-942f-43c8-b1ae-c88bec5c25b9
p187
V8a7cc079078e17fd20e068eb4bb0f056
p188
sV4ac8b0ee-b2fd-48d4-b1ac-b5a652d4aef0
p189
V8a7cc079078e17fd20e068eb4bb0f056
p190
sV07217651-9fed-452c-beb1-116c39b424b5
p191
V8a7cc079078e17fd20e068eb4bb0f056
p192
sVa39dc99a-0361-443b-a775-99be8d039608
p193
V8a7cc079078e17fd20e068eb4bb0f056
p194
sV2d1ac8a5-bd82-4c88-83bd-40106fdbd128
p195
V8a7cc079078e17fd20e068eb4bb0f056
p196
sVeebe4fc9-c35e-4f0c-a184-1352e0eebbea
p197
V8a7cc079078e17fd20e068eb4bb0f056
p198
sV161a94bc-c243-43f8-92fd-9f841c1970a1
p199
V8a7cc079078e17fd20e068eb4bb0f056
p200
sVad731b75-db3a-4c05-8122-2b7ae7b7f164
p201
V8a7cc079078e17fd20e068eb4bb0f056
p202
sVe876b077-b8ff-44d3-9291-69c7186096db
p203
V8a7cc079078e17fd20e068eb4bb0f056
p204
sV5d022f25-b96b-4e3d-b96f-adca37f7d6b7
p205
V8a7cc079078e17fd20e068eb4bb0f056
p206
sVc38a8ed1-9609-40ca-8ff7-0a39fcc151e8
p207
V8a7cc079078e17fd20e068eb4bb0f056
p208
sVdf02de4d-d697-4985-9179-b6bbb932802a
p209
V8a7cc079078e17fd20e068eb4bb0f056
p210
sVce680ab8-d077-44ad-86d4-baa7178af167
p211
V8a7cc079078e17fd20e068eb4bb0f056
p212
sV9503aa9e-a2f2-4e63-ad48-2b8376b7421b
p213
V8a7cc079078e17fd20e068eb4bb0f056
p214
sV9995d98a-c7ab-4448-a25b-8d9fb043acb7
p215
V8a7cc079078e17fd20e068eb4bb0f056
p216
sV49512f4d-1b35-433a-aa50-1399018e382d
p217
V8a7cc079078e17fd20e068eb4bb0f056
p218
sV8d2fbf72-20f8-4092-915f-5f0d344a5e51
p219
V8a7cc079078e17fd20e068eb4bb0f056
p220
sV068daa9a-ff0f-4a91-9177-1d32f6006643
p221
V8a7cc079078e17fd20e068eb4bb0f056
p222
sV4ac5886e-8b1c-4088-b617-4f67946f08f2
p223
V8a7cc079078e17fd20e068eb4bb0f056
p224
sV7632b1a0-8d96-45b8-885f-4f39950d6aa8
p225
V8a7cc079078e17fd20e068eb4bb0f056
p226
sVf890aa5d-d2cc-4439-89ca-719459b29f48
p227
V8a7cc079078e17fd20e068eb4bb0f056
p228
sVc3b418a4-fd8f-44fd-9cab-1c36f4805e7f
p229
V8a7cc079078e17fd20e068eb4bb0f056
p230
sVb2ff198b-b7ec-4678-9080-5d9cbc728828
p231
V8a7cc079078e17fd20e068eb4bb0f056
p232
sV7f68814e-9c04-4630-8de7-7c9708e4d109
p233
V8a7cc079078e17fd20e068eb4bb0f056
p234
sV916ae381-d2eb-4443-961c-793acba316eb
p235
V8a7cc079078e17fd20e068eb4bb0f056
p236
sVa5279ce9-78f8-4b78-89a7-ffef93b05b4e
p237
V8a7cc079078e17fd20e068eb4bb0f056
p238
sV2bc0ff2b-74fe-42eb-b6e3-dc4c4841bdc7
p239
V8a7cc079078e17fd20e068eb4bb0f056
p240
sV651e7ade-8dc2-4fa9-a4b9-aee336fa7c28
p241
V8a7cc079078e17fd20e068eb4bb0f056
p242
sVaef47c14-14c9-4ec0-9478-1333052004e4
p243
V8a7cc079078e17fd20e068eb4bb0f056
p244
sVf3c3851c-dd89-44d0-a899-f48655817727
p245
V8a7cc079078e17fd20e068eb4bb0f056
p246
sV2c250b1b-8f0d-434b-b436-8ccfaf6aa8e3
p247
V8a7cc079078e17fd20e068eb4bb0f056
p248
sV568d8361-f6f9-45ae-acf9-377418e30039
p249
V8a7cc079078e17fd20e068eb4bb0f056
p250
sVc3fd04da-9438-43d8-8181-9b00919484b0
p251
V8a7cc079078e17fd20e068eb4bb0f056
p252
sVfb5d6c0a-e0f7-4e45-a737-fcf9e66e562e
p253
V8a7cc079078e17fd20e068eb4bb0f056
p254
sV1440f5cc-9efc-4502-8853-d7f8e1d97277
p255
V8a7cc079078e17fd20e068eb4bb0f056
p256
sVe991c476-43b9-4452-b249-e1e1d4c72fbc
p257
V8a7cc079078e17fd20e068eb4bb0f056
p258
sVd39aff41-b3f4-4275-9532-e3da134eef35
p259
V8a7cc079078e17fd20e068eb4bb0f056
p260
sV86f0b092-5a83-4da2-8c51-9f50d4964436
p261
V8a7cc079078e17fd20e068eb4bb0f056
p262
sV7351085d-d703-4aa7-bf3f-493d803117a3
p263
V8a7cc079078e17fd20e068eb4bb0f056
p264
sV99bc3b9c-d411-4779-9349-d1462e6f1f75
p265
V8a7cc079078e17fd20e068eb4bb0f056
p266
sV47de0f8b-9642-46b6-88bb-25fad22e9929
p267
V8a7cc079078e17fd20e068eb4bb0f056
p268
sV6dc11746-d248-4013-a203-bd4953de7c4a
p269
V8a7cc079078e17fd20e068eb4bb0f056
p270
sV4e1bd509-2e4e-442c-ae70-9645157fa304
p271
V8a7cc079078e17fd20e068eb4bb0f056
p272
sV15111516-cb13-4f2d-a0b7-d902e595eccf
p273
V8a7cc079078e17fd20e068eb4bb0f056
p274
sV07b31964-c0e3-4440-a405-f9848fa51f7c
p275
V8a7cc079078e17fd20e068eb4bb0f056
p276
sVbf37a9bc-bd61-419f-9314-e9c7fabf89cc
p277
V8a7cc079078e17fd20e068eb4bb0f056
p278
sV4285205d-be98-4e39-836c-5533987a77bd
p279
V8a7cc079078e17fd20e068eb4bb0f056
p280
sV2078f100-d824-4da3-9eae-34460775dfe2
p281
V8a7cc079078e17fd20e068eb4bb0f056
p282
sV687edb82-6d59-49b1-819d-90b326bacbd9
p283
V8a7cc079078e17fd20e068eb4bb0f056
p284
sVf70ee60e-d429-4414-8c6e-fcf26b250481
p285
V8a7cc079078e17fd20e068eb4bb0f056
p286
sV5bfc01a6-e679-4261-85bf-304421397a1f
p287
V8a7cc079078e17fd20e068eb4bb0f056
p288
sVb11ac781-3bbf-45c6-b8ca-af9aa68977a2
p289
V8a7cc079078e17fd20e068eb4bb0f056
p290
sV182e4cb8-812b-4593-862e-db19fe39b137
p291
V8a7cc079078e17fd20e068eb4bb0f056
p292
sV0d4ce6d5-6b91-46f5-9fca-e826798510de
p293
V8a7cc079078e17fd20e068eb4bb0f056
p294
sV81dee205-a304-47e1-9edf-c25fda64a55d
p295
V8a7cc079078e17fd20e068eb4bb0f056
p296
sVeb4b13ab-03a9-48bd-8466-3b0ef585feff
p297
V8a7cc079078e17fd20e068eb4bb0f056
p298
sVbf5aea35-11f5-43b7-a4ba-7fe121b3b05d
p299
V8a7cc079078e17fd20e068eb4bb0f056
p300
sVe8736f2e-bd7d-40b8-a707-d602117bd5c5
p301
V8a7cc079078e17fd20e068eb4bb0f056
p302
sV370799d4-8a32-4d56-bb8c-bb3aa8752203
p303
V8a7cc079078e17fd20e068eb4bb0f056
p304
sV11413ee2-9a6a-42fe-bb52-e8079a931e1b
p305
V8a7cc079078e17fd20e068eb4bb0f056
p306
sVec3c6fdd-5fcb-4150-8323-5b160f9123bc
p307
V8a7cc079078e17fd20e068eb4bb0f056
p308
sV3b6add61-1c06-44c8-9ba0-0524f018bcd8
p309
V8a7cc079078e17fd20e068eb4bb0f056
p310
sVb6d5a525-16ac-4bff-aa3b-8ac8074f0bd0
p311
V8a7cc079078e17fd20e068eb4bb0f056
p312
sV340f11d5-b057-41e2-adb8-3f51c8756caa
p313
V8a7cc079078e17fd20e068eb4bb0f056
p314
sVf1e1c3bc-f751-4785-bd25-f591e3c856b4
p315
V8a7cc079078e17fd20e068eb4bb0f056
p316
sV7f7fa7d6-a5ae-4071-a8c0-45ae4f46930c
p317
V8a7cc079078e17fd20e068eb4bb0f056
p318
sV48a86686-fa7e-416f-9efe-240d05af548e
p319
V8a7cc079078e17fd20e068eb4bb0f056
p320
sV9fad93cc-6296-4928-a0c6-a6037326856d
p321
V8a7cc079078e17fd20e068eb4bb0f056
p322
sV155a3e7a-4ad8-4046-96c5-cbc8a34b8c2f
p323
V8a7cc079078e17fd20e068eb4bb0f056
p324
sV1a74e97d-9f1a-4842-bbe1-b4a128eb9397
p325
V8a7cc079078e17fd20e068eb4bb0f056
p326
sV96c5cea4-e208-487e-be66-044ba0562e0f
p327
V8a7cc079078e17fd20e068eb4bb0f056
p328
sV04739c59-9c3c-4956-b08d-b5d734254cf9
p329
V8a7cc079078e17fd20e068eb4bb0f056
p330
sVdba3ede7-b6d3-4b6b-b40e-ffaa83c681b3
p331
V8a7cc079078e17fd20e068eb4bb0f056
p332
sV5de42ef9-3fe3-43e7-bda1-bb435be4ed57
p333
V8a7cc079078e17fd20e068eb4bb0f056
p334
sVa9f3afd4-15dd-4bd4-ad30-af46c14cb4f6
p335
V8a7cc079078e17fd20e068eb4bb0f056
p336
sV6710a75f-15a5-4d02-8f01-563630a1ad38
p337
V8a7cc079078e17fd20e068eb4bb0f056
p338
sV88ee7e6b-9329-4820-93d5-e4a5d7240b81
p339
V8a7cc079078e17fd20e068eb4bb0f056
p340
sV8a306191-e998-4d05-bc4d-b7d61d57e5e7
p341
V8a7cc079078e17fd20e068eb4bb0f056
p342
sV802b0064-06b8-45e2-ad4c-34e5a1035c12
p343
V8a7cc079078e17fd20e068eb4bb0f056
p344
sVa9c2f06b-5968-4a46-89ce-1fd6bbd10076
p345
V8a7cc079078e17fd20e068eb4bb0f056
p346
sVdbac4090-f35e-4f80-9314-9f9ff5b7583c
p347
V8a7cc079078e17fd20e068eb4bb0f056
p348
sV7b7a5fa6-6368-4656-9247-82f3d8cf5947
p349
V8a7cc079078e17fd20e068eb4bb0f056
p350
sV7d4efaa5-4905-42eb-98db-150ea0d687d8
p351
V8a7cc079078e17fd20e068eb4bb0f056
p352
sV1e6dcd5a-8b69-453e-a3c8-d1b6fadda2a1
p353
V8a7cc079078e17fd20e068eb4bb0f056
p354
sV5aec111d-6cc8-4900-84ad-88fa2a693cd7
p355
V8a7cc079078e17fd20e068eb4bb0f056
p356
sV10f83f88-685e-4804-bd84-c6795b03637f
p357
V8a7cc079078e17fd20e068eb4bb0f056
p358
sV705b7e90-0179-42be-affe-a9198d149f3e
p359
V8a7cc079078e17fd20e068eb4bb0f056
p360
sVf17be44a-d4a1-4409-b912-8d64c6f63ada
p361
V8a7cc079078e17fd20e068eb4bb0f056
p362
sVa2010948-45eb-484d-b3cf-6a064c0dbbe5
p363
V8a7cc079078e17fd20e068eb4bb0f056
p364
sV51148e3e-a96d-453a-ade1-f5407ac5b92d
p365
V8a7cc079078e17fd20e068eb4bb0f056
p366
sVf3421a00-e00a-462a-a49a-2b350d865a4d
p367
V8a7cc079078e17fd20e068eb4bb0f056
p368
sVb7514c5f-fd48-4c92-b5b9-2b3370b7de84
p369
V8a7cc079078e17fd20e068eb4bb0f056
p370
sVc6696165-7979-4e00-9b13-10e237af5c91
p371
V8a7cc079078e17fd20e068eb4bb0f056
p372
sV222e70ae-ffeb-474d-a528-76362a0aef37
p373
V8a7cc079078e17fd20e068eb4bb0f056
p374
sVa2fa015d-aa7f-4679-a249-f388afbcdd9a
p375
V8a7cc079078e17fd20e068eb4bb0f056
p376
sVb26b2b4b-388d-470b-8736-1c392911264f
p377
V8a7cc079078e17fd20e068eb4bb0f056
p378
sV38190aa8-aa04-42c5-99ae-b1ebfc498a72
p379
V8a7cc079078e17fd20e068eb4bb0f056
p380
sVb90975f6-af0e-4b66-99a1-c228f14f6ebc
p381
V8a7cc079078e17fd20e068eb4bb0f056
p382
sV6ebad612-ab1c-442a-a73b-708458251eab
p383
V8a7cc079078e17fd20e068eb4bb0f056
p384
sV3ab1ca56-5f95-44f2-9ce4-5a60846599a1
p385
V8a7cc079078e17fd20e068eb4bb0f056
p386
sV5e683f3f-76d8-4b93-aa30-c76a44636bfe
p387
V8a7cc079078e17fd20e068eb4bb0f056
p388
sV5670cfc9-b3fa-4374-9133-7d5fb13e38a7
p389
V8a7cc079078e17fd20e068eb4bb0f056
p390
sV69a6f981-1d1d-4d51-b6a9-05ca60ce5e25
p391
V8a7cc079078e17fd20e068eb4bb0f056
p392
sV01647ee6-12ce-450e-89ab-424ca30ccae2
p393
V8a7cc079078e17fd20e068eb4bb0f056
p394
sVb6e7808b-9074-41d2-8416-ce5862b075b6
p395
V8a7cc079078e17fd20e068eb4bb0f056
p396
sV4b47bb77-a2d7-4ffd-a074-24e6d1ee3bbf
p397
V8a7cc079078e17fd20e068eb4bb0f056
p398
sV2f97f96f-757e-4682-af92-7abf9692ad08
p399
V8a7cc079078e17fd20e068eb4bb0f056
p400
sV70cf9a6f-dede-4bbe-895e-0e5d42f7574b
p401
V8a7cc079078e17fd20e068eb4bb0f056
p402
sV7b309e39-adbb-49ca-be3c-81707dc3a589
p403
V8a7cc079078e17fd20e068eb4bb0f056
p404
sVd9bb5465-6513-4c17-8aa8-2310c5895ac5
p405
V8a7cc079078e17fd20e068eb4bb0f056
p406
sVea0a19ff-448f-47f7-a1bf-f9c3f4f46c2b
p407
V8a7cc079078e17fd20e068eb4bb0f056
p408
sV380ccd8f-0ed8-45cd-93af-52e09c7184f8
p409
V8a7cc079078e17fd20e068eb4bb0f056
p410
sV1b250374-3d6f-4597-bba5-29a70f887a2f
p411
V8a7cc079078e17fd20e068eb4bb0f056
p412
sVbacf99cf-2adf-4728-9c2d-2dc479f12309
p413
V8a7cc079078e17fd20e068eb4bb0f056
p414
sVfc745567-7283-4e6c-9073-8edd861cb862
p415
V8a7cc079078e17fd20e068eb4bb0f056
p416
sVfe92024b-2f93-426a-91fe-abfe0c1dd9cc
p417
V8a7cc079078e17fd20e068eb4bb0f056
p418
sV799abf2b-9c73-42b8-a007-d6269d2d0298
p419
V8a7cc079078e17fd20e068eb4bb0f056
p420
sV137de876-0259-4dc4-bf85-53a1e571ad3c
p421
V8a7cc079078e17fd20e068eb4bb0f056
p422
sV6ab3930e-8d54-4ea8-a19e-0a8640a23a66
p423
V8a7cc079078e17fd20e068eb4bb0f056
p424
sV8723e260-0569-4eed-9f53-89e55c6a4c3f
p425
V8a7cc079078e17fd20e068eb4bb0f056
p426
sVe55b6310-7624-458e-9647-9787b7a856fa
p427
V8a7cc079078e17fd20e068eb4bb0f056
p428
sV85d949e7-1764-4065-af33-a1a1edcd2f9c
p429
V8a7cc079078e17fd20e068eb4bb0f056
p430
sV029ccdde-474a-4025-82ab-8cf04577e8d6
p431
V8a7cc079078e17fd20e068eb4bb0f056
p432
sVd0fa7609-f04e-487a-a5c6-c216e1b78fe5
p433
V8a7cc079078e17fd20e068eb4bb0f056
p434
sVf9c8ad9f-6d48-49f7-bf7e-7ad5630880bc
p435
V8a7cc079078e17fd20e068eb4bb0f056
p436
sV3e0ba2f2-9b79-4640-b26b-9d7ea40d2475
p437
V8a7cc079078e17fd20e068eb4bb0f056
p438
sV908a357e-eb0f-40f7-8ad6-985d7ff4f68c
p439
V8a7cc079078e17fd20e068eb4bb0f056
p440
sV92fa343d-bb40-4abf-8bb6-f6968662e4c7
p441
V8a7cc079078e17fd20e068eb4bb0f056
p442
sVbf1c352a-ef25-476a-9432-66ead843d6c2
p443
V8a7cc079078e17fd20e068eb4bb0f056
p444
sVbfc8b1e1-2980-4ef0-9686-78e9d0798b06
p445
V8a7cc079078e17fd20e068eb4bb0f056
p446
sV22fe2afd-2aff-4d8b-9f2c-dcc9d7713342
p447
V8a7cc079078e17fd20e068eb4bb0f056
p448
sVb43763e8-9c87-4cc8-90dc-fe2886f5ac85
p449
V8a7cc079078e17fd20e068eb4bb0f056
p450
sVc641405a-d691-4074-ad26-406667dac1cd
p451
V8a7cc079078e17fd20e068eb4bb0f056
p452
sVeb14a069-8cf4-466c-8518-6d122c60ec1a
p453
V8a7cc079078e17fd20e068eb4bb0f056
p454
sVb7817ab9-a9fa-4214-9490-fc3ca23e0ba4
p455
V8a7cc079078e17fd20e068eb4bb0f056
p456
sVc8fe612c-91c6-40a6-8ef2-a96441179f82
p457
V8a7cc079078e17fd20e068eb4bb0f056
p458
sV8e53206b-6377-45aa-a56a-be4396811662
p459
V8a7cc079078e17fd20e068eb4bb0f056
p460
sVfe6c7b49-0d3f-43be-b515-0291e5a34d97
p461
V8a7cc079078e17fd20e068eb4bb0f056
p462
sVf59ce782-b2a2-4112-bb6f-eeb4274dd4f6
p463
V8a7cc079078e17fd20e068eb4bb0f056
p464
sVb4b66aea-03e7-4a3a-b6aa-643321b29b65
p465
V8a7cc079078e17fd20e068eb4bb0f056
p466
sVcdd1f334-43dd-4ac3-b845-88e28a970d0b
p467
V8a7cc079078e17fd20e068eb4bb0f056
p468
sVaa3a3109-8868-4de4-aad7-b5912db09fbb
p469
V8a7cc079078e17fd20e068eb4bb0f056
p470
sV62a8a6a5-495f-4432-95ac-5efe5ce9da74
p471
V8a7cc079078e17fd20e068eb4bb0f056
p472
sV13600a7f-13c5-483f-9e6b-64e6bed95a3d
p473
V8a7cc079078e17fd20e068eb4bb0f056
p474
sV6ba8e91b-84af-42f5-9614-805eccaddb19
p475
V8a7cc079078e17fd20e068eb4bb0f056
p476
sVafa6d5a0-0c59-4043-ab5b-ad9e97496eac
p477
V8a7cc079078e17fd20e068eb4bb0f056
p478
sV388d6f9a-b63c-484b-927d-4642aed62346
p479
V8a7cc079078e17fd20e068eb4bb0f056
p480
sV6e373bf8-473b-48d9-ae7d-eb6ce2479a3b
p481
V8a7cc079078e17fd20e068eb4bb0f056
p482
sV5b909675-1b23-44de-a3a4-e06134bdb519
p483
V8a7cc079078e17fd20e068eb4bb0f056
p484
sV7a142e46-eb0e-4ed2-8202-81ac5c1490fe
p485
V8a7cc079078e17fd20e068eb4bb0f056
p486
sV44606a84-6509-4b29-86ac-e4849203f555
p487
V8a7cc079078e17fd20e068eb4bb0f056
p488
sVbbbf8943-e188-4da4-87a6-62cbac53c1b6
p489
V8a7cc079078e17fd20e068eb4bb0f056
p490
sV0c08121f-e4e5-44fc-808c-9a7afe2e4bf5
p491
V8a7cc079078e17fd20e068eb4bb0f056
p492
sVa45216ff-de19-4bee-b689-596f74146af5
p493
V8a7cc079078e17fd20e068eb4bb0f056
p494
sV97ec5774-5410-4d46-8919-f3bdb296c311
p495
V8a7cc079078e17fd20e068eb4bb0f056
p496
sV71d482c8-6f7b-40f2-ae1c-972e02c35331
p497
V8a7cc079078e17fd20e068eb4bb0f056
p498
sV75f9835d-3faf-4ff7-b17d-4d033a5545ad
p499
V8a7cc079078e17fd20e068eb4bb0f056
p500
sV29d72de2-37e3-4c0e-bd72-45c1555d779d
p501
V8a7cc079078e17fd20e068eb4bb0f056
p502
sV010db0a5-b102-4966-9cc2-20614bc780ac
p503
V8a7cc079078e17fd20e068eb4bb0f056
p504
sVb5dea8c6-1f3a-4e48-bbe7-c81187127b42
p505
V8a7cc079078e17fd20e068eb4bb0f056
p506
sV3eefde13-746f-4cdf-9ffc-8fa0ba0b7bba
p507
V8a7cc079078e17fd20e068eb4bb0f056
p508
sVe7ae9ef5-f12e-40ee-b603-0424e886c143
p509
V8a7cc079078e17fd20e068eb4bb0f056
p510
sVbdedfbfb-7fca-43b0-89bc-e61550bf4163
p511
V8a7cc079078e17fd20e068eb4bb0f056
p512
sV861b250e-31b4-45ac-9ee7-3739184a1ef0
p513
V8a7cc079078e17fd20e068eb4bb0f056
p514
sV40cbb99a-461d-45fe-bf57-b7bd9949a903
p515
V8a7cc079078e17fd20e068eb4bb0f056
p516
sVecbc413c-49d3-4318-87da-8ae63d70a1b6
p517
V8a7cc079078e17fd20e068eb4bb0f056
p518
sV6bf9e576-1f5d-4410-9a33-15697f12e273
p519
V8a7cc079078e17fd20e068eb4bb0f056
p520
sVf68fe7ef-4589-47cb-af8e-32aec9e4d0da
p521
V8a7cc079078e17fd20e068eb4bb0f056
p522
sV806e3989-b9ee-4e2b-8cd3-ab0129953803
p523
V8a7cc079078e17fd20e068eb4bb0f056
p524
sV32f640f7-c03f-4016-8703-24a907d3ab62
p525
V8a7cc079078e17fd20e068eb4bb0f056
p526
sVf4a783e2-bd71-424c-afbd-a02cf1025531
p527
V8a7cc079078e17fd20e068eb4bb0f056
p528
sV7a7da4a8-8f65-44d1-bfed-5ea1a296d19d
p529
V8a7cc079078e17fd20e068eb4bb0f056
p530
sV1099da2a-f703-4879-b44a-f369102419cb
p531
V8a7cc079078e17fd20e068eb4bb0f056
p532
sV95f78146-91b1-42b9-a588-bd06f0fe388a
p533
V8a7cc079078e17fd20e068eb4bb0f056
p534
sV5d0c106d-8dcb-4e60-a751-f5dc96e1f3a1
p535
V8a7cc079078e17fd20e068eb4bb0f056
p536
sVcb56897f-4103-4b02-ae1a-f2dc19bf616a
p537
V8a7cc079078e17fd20e068eb4bb0f056
p538
sV29cd4962-d256-4fc8-bd83-345d2e353c79
p539
V8a7cc079078e17fd20e068eb4bb0f056
p540
sV659786dc-76cb-4953-88cc-78de4996e6b6
p541
V8a7cc079078e17fd20e068eb4bb0f056
p542
sV9b2e9a25-4652-4a70-ac00-11dfd8cd01b3
p543
V8a7cc079078e17fd20e068eb4bb0f056
p544
sV47051c1c-cf0b-4236-918e-e35350c2cf32
p545
V8a7cc079078e17fd20e068eb4bb0f056
p546
sVe87f1feb-c8cc-4c30-8e12-bb1ad513e948
p547
V8a7cc079078e17fd20e068eb4bb0f056
p548
sVb65537cf-5685-4176-822a-c2bcfe420396
p549
V8a7cc079078e17fd20e068eb4bb0f056
p550
sVd6cf371d-a87d-46db-b434-6f4fe85fee12
p551
V8a7cc079078e17fd20e068eb4bb0f056
p552
sVf2000ac4-b86e-4106-885b-c65aa55383d8
p553
V8a7cc079078e17fd20e068eb4bb0f056
p554
sVdd3605a1-e072-4dea-b58e-cc85fddb6145
p555
V8a7cc079078e17fd20e068eb4bb0f056
p556
sV01db495b-73bf-4f66-9c30-d1afe92aed9f
p557
V8a7cc079078e17fd20e068eb4bb0f056
p558
sV44f33cef-e2fb-4c5b-a931-524ac37136ac
p559
V8a7cc079078e17fd20e068eb4bb0f056
p560
sV241ad001-7d00-48d0-9493-6fef610988a2
p561
V8a7cc079078e17fd20e068eb4bb0f056
p562
sV2b50b721-441c-4f61-8cbe-16843ef74cef
p563
V8a7cc079078e17fd20e068eb4bb0f056
p564
sVf3fc24ad-bcd1-4bc9-bd3e-65628ebe849e
p565
V8a7cc079078e17fd20e068eb4bb0f056
p566
sV26feb29a-12ba-4710-b72b-c806c53cfdbb
p567
V8a7cc079078e17fd20e068eb4bb0f056
p568
sV9102de37-2a3f-4ffd-8d41-05ab7032f6b0
p569
V8a7cc079078e17fd20e068eb4bb0f056
p570
sVcffafb3c-f0ac-44f9-a4c4-fa5a30c94063
p571
V8a7cc079078e17fd20e068eb4bb0f056
p572
sV394a0831-87eb-41ba-9e75-ef8e30dd8bc6
p573
V8a7cc079078e17fd20e068eb4bb0f056
p574
sV43734043-9bbd-437b-a6ce-99c0028896ce
p575
V8a7cc079078e17fd20e068eb4bb0f056
p576
sV7d7a30af-9c2c-4a4b-9122-82458f4d2688
p577
V8a7cc079078e17fd20e068eb4bb0f056
p578
sV4b62d8c6-bbf4-410f-aa61-1aa89fb5587b
p579
V8a7cc079078e17fd20e068eb4bb0f056
p580
sV369f02ef-69c9-4ad2-a46f-a01630a71d66
p581
V8a7cc079078e17fd20e068eb4bb0f056
p582
sVdf2a6bb5-713c-4a47-ab55-5520b19d7a75
p583
V8a7cc079078e17fd20e068eb4bb0f056
p584
sV8b240e82-1e0d-4583-a471-4040d9fe94fd
p585
V8a7cc079078e17fd20e068eb4bb0f056
p586
sV44e3ecc0-eb35-43a6-aff4-b8472c6c6eaf
p587
V8a7cc079078e17fd20e068eb4bb0f056
p588
sV9d04b39b-9460-4525-8217-9bc894b1c0cc
p589
V8a7cc079078e17fd20e068eb4bb0f056
p590
sV9b8b09bd-dc83-46c4-88b3-239739a92120
p591
V8a7cc079078e17fd20e068eb4bb0f056
p592
sV314cf405-db8e-42e8-8443-0ec7d866f32a
p593
V8a7cc079078e17fd20e068eb4bb0f056
p594
sV66c99ac7-7570-41f8-a244-3971dacaf496
p595
V8a7cc079078e17fd20e068eb4bb0f056
p596
sV1a8b0106-4888-459b-a2f7-6483cfba0a91
p597
V8a7cc079078e17fd20e068eb4bb0f056
p598
sV108a8dbe-38b4-4c3b-b5fe-ef1fe373cead
p599
V8a7cc079078e17fd20e068eb4bb0f056
p600
sV16c917e5-2b2b-4fcd-8264-ae573d2b0391
p601
V8a7cc079078e17fd20e068eb4bb0f056
p602
sVdf534c37-8ba6-4cd0-bdb8-4480ea181861
p603
V8a7cc079078e17fd20e068eb4bb0f056
p604
sVa11983c0-b191-4285-be4c-b96476620048
p605
V8a7cc079078e17fd20e068eb4bb0f056
p606
sV8087d1f2-6314-4456-8e39-6ba5cf4ea63d
p607
V8a7cc079078e17fd20e068eb4bb0f056
p608
sV8b32901c-8e97-4cd5-97cc-6eed5d70d77e
p609
V8a7cc079078e17fd20e068eb4bb0f056
p610
sV50f87a68-e5fe-40f4-8f74-c21d623a3021
p611
V8a7cc079078e17fd20e068eb4bb0f056
p612
sVd43e1930-f137-41ea-926a-5a7dfd642b81
p613
V8a7cc079078e17fd20e068eb4bb0f056
p614
sVe2348597-6650-4be6-9737-f3f73d783be0
p615
V8a7cc079078e17fd20e068eb4bb0f056
p616
sV45e03242-4ed0-4192-bde9-ebc6b889d855
p617
V8a7cc079078e17fd20e068eb4bb0f056
p618
sV59483ecd-d3a7-4be2-96ea-77135ff79664
p619
V8a7cc079078e17fd20e068eb4bb0f056
p620
sV095c5361-5cee-487f-863e-a089d0bff80f
p621
V8a7cc079078e17fd20e068eb4bb0f056
p622
sVc2c4d3f4-1b7b-49e8-b006-68e2033ff957
p623
V8a7cc079078e17fd20e068eb4bb0f056
p624
sV8d4a077f-10ca-4e7a-9e79-d52921c3c3b0
p625
V8a7cc079078e17fd20e068eb4bb0f056
p626
sV0ff4f51d-2861-4c87-bfef-8cf0c9fc7f3d
p627
V8a7cc079078e17fd20e068eb4bb0f056
p628
sVf95713e9-1325-4257-bf52-ee126bfc44f9
p629
V8a7cc079078e17fd20e068eb4bb0f056
p630
sVbc135c38-6d7c-4a58-9d94-a7aea697b649
p631
V8a7cc079078e17fd20e068eb4bb0f056
p632
sVff20d8f8-bd98-419c-a6ae-ed64d1ecc0b0
p633
V8a7cc079078e17fd20e068eb4bb0f056
p634
sV7d194c52-9aa1-4ce1-b9c3-c1b0c2fd33a3
p635
V8a7cc079078e17fd20e068eb4bb0f056
p636
sV0d435b68-e4f6-4f8f-811a-fa043370eed3
p637
V8a7cc079078e17fd20e068eb4bb0f056
p638
sV486a262d-253e-411a-815b-0cb51e17c112
p639
V8a7cc079078e17fd20e068eb4bb0f056
p640
sVbd092c20-9b09-443c-a8ae-3ff8a6f99eed
p641
V8a7cc079078e17fd20e068eb4bb0f056
p642
sVd954a0b4-dadc-49df-9cb7-4c01109560e7
p643
V8a7cc079078e17fd20e068eb4bb0f056
p644
sV812bffe1-71d9-4d3e-bf1d-33b85b154af7
p645
V8a7cc079078e17fd20e068eb4bb0f056
p646
sVc08dc799-cad0-4de4-97ec-0e621d6f2676
p647
V8a7cc079078e17fd20e068eb4bb0f056
p648
sV15f176e0-c96b-4f77-a010-d5852d098dad
p649
V8a7cc079078e17fd20e068eb4bb0f056
p650
sV33438667-395b-452b-a5c0-eb12d4a95952
p651
V8a7cc079078e17fd20e068eb4bb0f056
p652
sV188a2c75-b7ab-4468-96c8-152557e085d6
p653
V8a7cc079078e17fd20e068eb4bb0f056
p654
sVd6217492-6289-4bbe-978d-d108afbfe376
p655
V8a7cc079078e17fd20e068eb4bb0f056
p656
sVeacc9893-6846-46f5-8aaf-6ea340eeb0ab
p657
V8a7cc079078e17fd20e068eb4bb0f056
p658
sV00f435a4-f680-41ba-8f5b-6d6190dcae24
p659
V8a7cc079078e17fd20e068eb4bb0f056
p660
sVf92a9cb7-2eca-4b09-a267-606e948e8e50
p661
V8a7cc079078e17fd20e068eb4bb0f056
p662
sV2b7261b2-4a35-4c3e-bb2c-446a7c6563e0
p663
V8a7cc079078e17fd20e068eb4bb0f056
p664
sV88912a84-b555-4a59-884f-b5e974116723
p665
V8a7cc079078e17fd20e068eb4bb0f056
p666
sV41818f91-09b2-450e-83ba-3d808b560c52
p667
V8a7cc079078e17fd20e068eb4bb0f056
p668
sVdf4aff0a-efea-44d4-9656-7c41f33b1b44
p669
V8a7cc079078e17fd20e068eb4bb0f056
p670
sV4f61576b-0b15-423e-9b43-39391d19df36
p671
V8a7cc079078e17fd20e068eb4bb0f056
p672
sVbe5ab6d2-efb2-44d5-8bf7-72536c337789
p673
V8a7cc079078e17fd20e068eb4bb0f056
p674
sVedbc6584-3d08-485b-86b1-daf56b749971
p675
V8a7cc079078e17fd20e068eb4bb0f056
p676
sV9eaa66c1-7b0a-4eef-a47a-fe3a1f917a96
p677
V8a7cc079078e17fd20e068eb4bb0f056
p678
sVee676f95-889e-41cd-a5ba-819197b810e9
p679
V8a7cc079078e17fd20e068eb4bb0f056
p680
sV12899c02-2b02-48ad-9303-f345944c3a49
p681
V8a7cc079078e17fd20e068eb4bb0f056
p682
sV7beb9567-f0de-4dc2-b8ff-d52ee449dd9b
p683
V8a7cc079078e17fd20e068eb4bb0f056
p684
sVf60332b8-6f90-4f6d-827c-afdb81a11b5b
p685
V8a7cc079078e17fd20e068eb4bb0f056
p686
sV52f91206-cd1e-42d2-91ce-d89a156bb6c6
p687
V8a7cc079078e17fd20e068eb4bb0f056
p688
sV86e89d60-55b5-4948-bbf3-db1775c4e362
p689
V8a7cc079078e17fd20e068eb4bb0f056
p690
sV4bd23cb3-92eb-4f59-bfb0-90d6d204da28
p691
V8a7cc079078e17fd20e068eb4bb0f056
p692
sVee32b48a-e1d2-40ca-a821-c73a7212f791
p693
V8a7cc079078e17fd20e068eb4bb0f056
p694
sV72a67452-ea5e-4e36-800f-5ba2b11bad62
p695
V8a7cc079078e17fd20e068eb4bb0f056
p696
sVe3b7d366-aeea-4ce6-9997-ce67feb26382
p697
V8a7cc079078e17fd20e068eb4bb0f056
p698
sVcc929f7c-8d69-4c29-836b-4ecc18dbb489
p699
V8a7cc079078e17fd20e068eb4bb0f056
p700
sV737ab767-f42b-4f64-8e62-0f2312b01af2
p701
V8a7cc079078e17fd20e068eb4bb0f056
p702
sV2a3e723e-e6aa-4e91-8c17-9a8a84ad7e4d
p703
V8a7cc079078e17fd20e068eb4bb0f056
p704
sVdb8e76e2-8363-408f-9212-f13d1918bd6b
p705
V8a7cc079078e17fd20e068eb4bb0f056
p706
sV4d9b7067-4712-4951-ab5d-7ec459c76f20
p707
V8a7cc079078e17fd20e068eb4bb0f056
p708
sV92d0ad16-f3b7-4c9c-b7f7-ad7a81c86060
p709
V8a7cc079078e17fd20e068eb4bb0f056
p710
sV004a08d9-4e1f-42fc-9d07-eac26ec24222
p711
V8a7cc079078e17fd20e068eb4bb0f056
p712
sV567ffbf7-80cb-430d-a903-74a97b0e4a2b
p713
V8a7cc079078e17fd20e068eb4bb0f056
p714
sVd7287a31-6cf9-4b51-b9cd-58c9273d3c51
p715
V8a7cc079078e17fd20e068eb4bb0f056
p716
sVdf322ade-f1e9-4b6d-9251-b4cee32c60be
p717
V8a7cc079078e17fd20e068eb4bb0f056
p718
sV1660005a-4439-42bd-b386-8880a74fc78c
p719
V8a7cc079078e17fd20e068eb4bb0f056
p720
sV28be4630-aee8-46b5-842c-86c673f7e053
p721
V8a7cc079078e17fd20e068eb4bb0f056
p722
sV7ec0d7a3-fa48-447a-8c29-a34cd353acb9
p723
V8a7cc079078e17fd20e068eb4bb0f056
p724
sVa90b3b56-c6c3-4665-9e80-59bb12c5c2a5
p725
V8a7cc079078e17fd20e068eb4bb0f056
p726
sV3bff67ff-6ca5-4e87-a538-01755e8e9527
p727
V8a7cc079078e17fd20e068eb4bb0f056
p728
sV4c2b623b-e7c9-4f50-881a-dcb36ac14c09
p729
V8a7cc079078e17fd20e068eb4bb0f056
p730
sV3c1d6f02-7015-41ed-93a7-bb7bcc414eed
p731
V8a7cc079078e17fd20e068eb4bb0f056
p732
sVcf4f706f-a28d-4d22-b040-3d6e703c6106
p733
V8a7cc079078e17fd20e068eb4bb0f056
p734
sV827206f4-4f18-4bdd-8625-a2db8f20f993
p735
V8a7cc079078e17fd20e068eb4bb0f056
p736
sV6a0405f7-c4c6-45e2-9380-7144f29b08b8
p737
V8a7cc079078e17fd20e068eb4bb0f056
p738
sVb2ba56a2-e720-4bda-95c0-eb20c49054ae
p739
V8a7cc079078e17fd20e068eb4bb0f056
p740
sV36095ebf-ce13-4a48-a265-9da8f5dced45
p741
V8a7cc079078e17fd20e068eb4bb0f056
p742
sVf6b9d5af-c7fd-4b5f-b18d-2c325234fa03
p743
V8a7cc079078e17fd20e068eb4bb0f056
p744
sVf6746d6f-7cb2-46c7-b54c-e52fc69dee5f
p745
V8a7cc079078e17fd20e068eb4bb0f056
p746
sV4d920809-991b-4595-8d3a-3669e79677a7
p747
V8a7cc079078e17fd20e068eb4bb0f056
p748
sVcc35db02-13af-4237-99b8-9b2cce9b02cf
p749
V8a7cc079078e17fd20e068eb4bb0f056
p750
sVa14f0dfd-2e4d-499f-aa5a-cf0295c1dc84
p751
V8a7cc079078e17fd20e068eb4bb0f056
p752
sV39c14c2e-40d5-423f-9074-cea98886cdd1
p753
V8a7cc079078e17fd20e068eb4bb0f056
p754
sV3e5cf9af-d394-4367-9635-c4f1954dad05
p755
V8a7cc079078e17fd20e068eb4bb0f056
p756
sVd765bb55-a8a0-405e-9387-c2455e234063
p757
V8a7cc079078e17fd20e068eb4bb0f056
p758
sV61a0cdcc-a47e-480d-88ed-af2dad227caf
p759
V8a7cc079078e17fd20e068eb4bb0f056
p760
sVfd3afb07-3da7-4220-9cb0-a405721de29b
p761
V8a7cc079078e17fd20e068eb4bb0f056
p762
sVdad40deb-bf02-4d82-bb2f-6cfbb2469058
p763
V8a7cc079078e17fd20e068eb4bb0f056
p764
sVae6496f9-e110-4725-967b-147d4267d81e
p765
V8a7cc079078e17fd20e068eb4bb0f056
p766
sV879a95a2-8e14-4e51-8b5d-3fa6bdb4b638
p767
V8a7cc079078e17fd20e068eb4bb0f056
p768
sVcdca7303-faed-4196-a65b-dced062e5024
p769
V8a7cc079078e17fd20e068eb4bb0f056
p770
sV2feb1b03-b2b6-49b0-9bf2-a0c4bfb78a58
p771
V8a7cc079078e17fd20e068eb4bb0f056
p772
sVf66fdc2e-05e5-488d-96b5-cf515af03ce5
p773
V8a7cc079078e17fd20e068eb4bb0f056
p774
sV457ecd2a-3207-440b-ae4c-0d4992956206
p775
V8a7cc079078e17fd20e068eb4bb0f056
p776
sVee42a00c-f77a-4c05-bf62-fac5c6073400
p777
V8a7cc079078e17fd20e068eb4bb0f056
p778
sV021aeb7f-719a-4d42-9935-b813671fd4d6
p779
V8a7cc079078e17fd20e068eb4bb0f056
p780
sV5f762de2-ffa6-490a-9c15-14998be1920a
p781
V8a7cc079078e17fd20e068eb4bb0f056
p782
sVa0e601a2-7bbb-4293-8c48-a6608aa0224c
p783
V8a7cc079078e17fd20e068eb4bb0f056
p784
sV6fa4f32d-5e75-4eef-bddf-e443c4520cdc
p785
V8a7cc079078e17fd20e068eb4bb0f056
p786
sV245aaac4-f3ea-41c8-8f40-8f19abd92f20
p787
V8a7cc079078e17fd20e068eb4bb0f056
p788
sV56b29093-40e3-48b0-a37c-a5c33d1897a0
p789
V8a7cc079078e17fd20e068eb4bb0f056
p790
sVdad6e97b-e18f-453c-88a0-843dbf07dc03
p791
V8a7cc079078e17fd20e068eb4bb0f056
p792
sV1c8953fa-57ee-46a8-bd84-e9689797ba45
p793
V8a7cc079078e17fd20e068eb4bb0f056
p794
sV1822b843-06e7-4f0d-af1b-528d57e281fb
p795
V8a7cc079078e17fd20e068eb4bb0f056
p796
sV512e886a-a871-4129-82c5-9f6c1b5cb591
p797
V8a7cc079078e17fd20e068eb4bb0f056
p798
sVa58fb489-d475-43a4-8ca1-14e9a213db1d
p799
V8a7cc079078e17fd20e068eb4bb0f056
p800
sV3080e6cd-782e-492d-8a56-df212e6abb28
p801
V8a7cc079078e17fd20e068eb4bb0f056
p802
sV2058d0de-80f4-45a5-9da4-83a3f1ef43ef
p803
V8a7cc079078e17fd20e068eb4bb0f056
p804
sVc3b2f20c-8140-4ed9-9530-26bd76caad15
p805
V8a7cc079078e17fd20e068eb4bb0f056
p806
sVaca89ccf-525b-403f-a92e-962806a176fc
p807
V8a7cc079078e17fd20e068eb4bb0f056
p808
sVcb3f5597-301e-4f0c-bc80-462a9d4a1c58
p809
V8a7cc079078e17fd20e068eb4bb0f056
p810
sV9cf1c113-c141-48cd-a9a3-d22d0723ebcf
p811
V8a7cc079078e17fd20e068eb4bb0f056
p812
sVc435df54-55b4-4991-9ba0-ad0995a19c77
p813
V8a7cc079078e17fd20e068eb4bb0f056
p814
sV9c8ac96d-4b39-4604-b12e-940efa242c4f
p815
V8a7cc079078e17fd20e068eb4bb0f056
p816
sVb4886a6c-d5ac-43df-bb89-ed46728a0af7
p817
V8a7cc079078e17fd20e068eb4bb0f056
p818
sV219926ce-cd3d-447d-bf23-2663edd82367
p819
V8a7cc079078e17fd20e068eb4bb0f056
p820
sV1ed42530-9754-4a4c-9c2f-15c4f2c311b6
p821
V8a7cc079078e17fd20e068eb4bb0f056
p822
sV61fae2db-ceda-4a7f-a394-7fbe72702241
p823
V8a7cc079078e17fd20e068eb4bb0f056
p824
sV54c33bf7-3a4b-45b3-84ba-f32839cf30c8
p825
V8a7cc079078e17fd20e068eb4bb0f056
p826
sVd06392e6-4790-447b-a92c-48cfe74e6460
p827
V8a7cc079078e17fd20e068eb4bb0f056
p828
sV14fca95a-74ad-4fed-a77b-859fd2ed9fa4
p829
V8a7cc079078e17fd20e068eb4bb0f056
p830
sV54eea3e6-d4fe-4e23-afa7-861903d095c4
p831
V8a7cc079078e17fd20e068eb4bb0f056
p832
sV806a3087-a473-4732-a25d-56e3a8feb49b
p833
V8a7cc079078e17fd20e068eb4bb0f056
p834
sV982c7176-d631-402b-b710-2934421243fe
p835
V8a7cc079078e17fd20e068eb4bb0f056
p836
sVf1ccdcd0-b35e-4758-8164-1784e921ee5e
p837
V8a7cc079078e17fd20e068eb4bb0f056
p838
sV64148515-1991-458e-8c16-e0da5fb49ffb
p839
V8a7cc079078e17fd20e068eb4bb0f056
p840
sVdb502975-db14-44c6-b4ac-0e6d2658c21d
p841
V8a7cc079078e17fd20e068eb4bb0f056
p842
sV1275df4b-70eb-466e-932b-4c1fd4e09681
p843
V8a7cc079078e17fd20e068eb4bb0f056
p844
sV3dc6e2cb-9f3a-46f2-9b71-d2a84b60aeb2
p845
V8a7cc079078e17fd20e068eb4bb0f056
p846
sVb51200a2-d585-4d1a-9b92-ff42dc5fef3b
p847
V8a7cc079078e17fd20e068eb4bb0f056
p848
sVba799295-0a5c-4a33-bc42-916f017361f7
p849
V8a7cc079078e17fd20e068eb4bb0f056
p850
sV1bcf7b28-731b-4518-944d-b2a918fc590c
p851
V8a7cc079078e17fd20e068eb4bb0f056
p852
sVcfb86e4a-92c3-4fda-97f2-cea4f9f752ac
p853
V8a7cc079078e17fd20e068eb4bb0f056
p854
sV3c5bb1fc-6202-4426-9833-2bf8c2d455a2
p855
V8a7cc079078e17fd20e068eb4bb0f056
p856
sV44e7c9b1-c4a8-4a8d-aeae-2e8042e23430
p857
V8a7cc079078e17fd20e068eb4bb0f056
p858
sV8f743d0c-2535-47c5-b940-aeccefea765f
p859
V8a7cc079078e17fd20e068eb4bb0f056
p860
sV36541f77-9284-4398-b592-d990e2807782
p861
V8a7cc079078e17fd20e068eb4bb0f056
p862
sV35cf6a17-1fd4-4f96-94fe-a496798f5ca9
p863
V8a7cc079078e17fd20e068eb4bb0f056
p864
sV19230ea5-2986-423c-b7c1-870403a9b691
p865
V8a7cc079078e17fd20e068eb4bb0f056
p866
sVa7e5dfa0-fe63-4d8b-a39d-c927e5ff2372
p867
V8a7cc079078e17fd20e068eb4bb0f056
p868
sVdddc92c3-434d-47c0-91ab-213c5c6516f7
p869
V8a7cc079078e17fd20e068eb4bb0f056
p870
sV8f8179ee-dfa3-43c5-8051-811d5bf30a45
p871
V8a7cc079078e17fd20e068eb4bb0f056
p872
sVf5299d04-e348-4f3b-9026-4dd85ec9104f
p873
V8a7cc079078e17fd20e068eb4bb0f056
p874
sVd6f445d4-ee62-4b52-8007-62527cfc5461
p875
V8a7cc079078e17fd20e068eb4bb0f056
p876
sV67950e06-b8a7-40d0-a255-e41f8284e9d3
p877
V8a7cc079078e17fd20e068eb4bb0f056
p878
sV6f762095-2e37-4f67-aabd-64f5d5fdd05e
p879
V8a7cc079078e17fd20e068eb4bb0f056
p880
sV68ca55cb-7070-438f-bd35-2b0165a18d2a
p881
V8a7cc079078e17fd20e068eb4bb0f056
p882
sVdaefe595-e810-4b61-8e7f-10c508e5a639
p883
V8a7cc079078e17fd20e068eb4bb0f056
p884
sV0f69bde2-d81b-40ae-b071-5d3e6720498a
p885
V8a7cc079078e17fd20e068eb4bb0f056
p886
sV8c8c29a5-5ed4-4c59-b141-d9b2cc1f5aa9
p887
V8a7cc079078e17fd20e068eb4bb0f056
p888
sV0265ca49-27f5-4ed5-9c2f-75158de661de
p889
V8a7cc079078e17fd20e068eb4bb0f056
p890
sV27d617cd-c640-402c-8ebd-c5b904276338
p891
V8a7cc079078e17fd20e068eb4bb0f056
p892
sV85ebcbf8-c081-4cd2-b9c8-e424e882ed9d
p893
V8a7cc079078e17fd20e068eb4bb0f056
p894
sV8c3a1766-b9bc-458a-b828-11f0d0731a28
p895
V8a7cc079078e17fd20e068eb4bb0f056
p896
sV778ead35-9b59-44c6-94d3-4c40020b82df
p897
V8a7cc079078e17fd20e068eb4bb0f056
p898
sV902e8035-40a0-4591-8fd5-9dd324992fed
p899
V8a7cc079078e17fd20e068eb4bb0f056
p900
sV42328ae6-27fd-4f47-b977-1911dc7ea2be
p901
V8a7cc079078e17fd20e068eb4bb0f056
p902
sV1e2a1238-a39b-43d0-a657-af5f70552b55
p903
V8a7cc079078e17fd20e068eb4bb0f056
p904
sV466a7c4f-b7cf-4187-9f6a-ef7009a17d33
p905
V8a7cc079078e17fd20e068eb4bb0f056
p906
sV55f612dc-4893-41f9-a0ae-0ea9fdaece07
p907
V8a7cc079078e17fd20e068eb4bb0f056
p908
sVb945cb29-91b1-466e-939c-6abd50674aaa
p909
V8a7cc079078e17fd20e068eb4bb0f056
p910
sVacd0fbb6-cea7-4bfc-96f0-e982aac1ebb9
p911
V8a7cc079078e17fd20e068eb4bb0f056
p912
sVaf9ead9c-3074-4566-ba61-9daf09521491
p913
V8a7cc079078e17fd20e068eb4bb0f056
p914
sV20927425-1523-445b-a105-8371309cf5b8
p915
V8a7cc079078e17fd20e068eb4bb0f056
p916
sV6c3f8914-1056-4686-aeff-88d526856f4b
p917
V8a7cc079078e17fd20e068eb4bb0f056
p918
sV406ee9bd-4780-407e-aa7b-ba53ed0683ad
p919
V8a7cc079078e17fd20e068eb4bb0f056
p920
sV8fb94684-f11c-489a-a061-50abedaf47f2
p921
V8a7cc079078e17fd20e068eb4bb0f056
p922
sVfc167be6-fdc5-4666-b714-d856af6ce5b7
p923
V8a7cc079078e17fd20e068eb4bb0f056
p924
sV05333172-5c8d-4204-8b79-52de435012a6
p925
V8a7cc079078e17fd20e068eb4bb0f056
p926
sV37e04cba-db2b-4b46-a3fb-331f22574099
p927
V8a7cc079078e17fd20e068eb4bb0f056
p928
sVec85fe68-7894-48e6-bb7f-1b7beac334cc
p929
V8a7cc079078e17fd20e068eb4bb0f056
p930
sV8569242e-e064-4591-a958-0c88b3a902a2
p931
V8a7cc079078e17fd20e068eb4bb0f056
p932
sV9ed1f8ac-1a0b-40f0-9d36-b7d36cd18494
p933
V8a7cc079078e17fd20e068eb4bb0f056
p934
sV4009f5c6-2834-4751-a06d-65b41758e27d
p935
V8a7cc079078e17fd20e068eb4bb0f056
p936
sV9ecf33b4-2936-4453-bf82-f5ee62a100a7
p937
V8a7cc079078e17fd20e068eb4bb0f056
p938
sVc951f89a-f381-4252-8ff0-00933cf834e2
p939
V8a7cc079078e17fd20e068eb4bb0f056
p940
sV52e72393-747f-4ae5-b157-0fefe43fb459
p941
V8a7cc079078e17fd20e068eb4bb0f056
p942
sV72876e54-4587-468e-9334-72e7d1b231c6
p943
V8a7cc079078e17fd20e068eb4bb0f056
p944
sV0ed99224-eeb2-4564-b3b7-5eec7258a0fa
p945
V8a7cc079078e17fd20e068eb4bb0f056
p946
sVfa34a664-9570-4fcf-a831-8eaa4a11381c
p947
V8a7cc079078e17fd20e068eb4bb0f056
p948
sVc17888ee-1346-4dcc-b6d9-176002652a90
p949
V8a7cc079078e17fd20e068eb4bb0f056
p950
sV2e99d592-6392-4eb5-8d14-4d58358cb967
p951
V8a7cc079078e17fd20e068eb4bb0f056
p952
sV90b1ff8d-fe01-4c7a-a924-49b93cfde28d
p953
V8a7cc079078e17fd20e068eb4bb0f056
p954
sV20d53b69-b594-4eaf-b858-3595a5ead6b7
p955
V8a7cc079078e17fd20e068eb4bb0f056
p956
sV63ede67f-d208-4bc7-b137-37e03d2a7b23
p957
V8a7cc079078e17fd20e068eb4bb0f056
p958
sV7a96dd64-b9af-45c5-9c5e-a41515194cae
p959
V8a7cc079078e17fd20e068eb4bb0f056
p960
sV1362e4d7-d132-4296-bf1a-460ad86c61d9
p961
V8a7cc079078e17fd20e068eb4bb0f056
p962
sV74665cc5-3839-46db-b525-8d280d0ece69
p963
V8a7cc079078e17fd20e068eb4bb0f056
p964
sV9d4680d9-20a0-4305-957e-9b3c83f2acd4
p965
V8a7cc079078e17fd20e068eb4bb0f056
p966
sV0a6cf4a8-6be4-48db-b6c1-7756daf6f982
p967
V8a7cc079078e17fd20e068eb4bb0f056
p968
sV7a8a1189-3a5e-4dcd-980d-c4936acda8be
p969
V8a7cc079078e17fd20e068eb4bb0f056
p970
sV94ae2bc7-1991-45ac-92c5-511a63e27691
p971
V8a7cc079078e17fd20e068eb4bb0f056
p972
sVe52d1655-039c-4192-a6e5-bd2e85eed332
p973
V8a7cc079078e17fd20e068eb4bb0f056
p974
sVd08835fe-fc45-4ce0-929b-2254857953fa
p975
V8a7cc079078e17fd20e068eb4bb0f056
p976
sVeb2e1e28-db9f-499b-817c-a254e040681c
p977
V8a7cc079078e17fd20e068eb4bb0f056
p978
sV3b6588a9-9b7f-453f-9a30-d508b10b299d
p979
V8a7cc079078e17fd20e068eb4bb0f056
p980
sVe19f7bfc-375e-44e4-8c38-e981dba76fcf
p981
V8a7cc079078e17fd20e068eb4bb0f056
p982
sV6fa454f3-a2b6-4c04-b4fa-f6bc21c60394
p983
V8a7cc079078e17fd20e068eb4bb0f056
p984
sV2b71a325-64f8-488e-b56c-950176103eae
p985
V8a7cc079078e17fd20e068eb4bb0f056
p986
sVfa30d026-28d2-4889-a250-0a12bc5dee6e
p987
V8a7cc079078e17fd20e068eb4bb0f056
p988
sV75feecc7-1222-4370-88c1-fc0f4b9614c5
p989
V8a7cc079078e17fd20e068eb4bb0f056
p990
sVb4cc3d2b-1577-4c17-ac29-e5d2e3e664d5
p991
V8a7cc079078e17fd20e068eb4bb0f056
p992
sV6c0d9943-586b-41e7-b28b-5460f50ca1df
p993
V8a7cc079078e17fd20e068eb4bb0f056
p994
sV44eebe87-e079-4e79-8c46-b0cffddf9f56
p995
V8a7cc079078e17fd20e068eb4bb0f056
p996
sVaaac2b56-ec5d-447f-93d7-7874b4018545
p997
V8a7cc079078e17fd20e068eb4bb0f056
p998
sV1b87a00b-c549-4201-bf88-906dbe6fb8fb
p999
V8a7cc079078e17fd20e068eb4bb0f056
p1000
sV1563ca9e-d697-4387-91e5-502f6817d7e7
p1001
V8a7cc079078e17fd20e068eb4bb0f056
p1002
sVa7dd15f5-411f-49e6-8fe1-626149e082ae
p1003
V8a7cc079078e17fd20e068eb4bb0f056
p1004
sV4509e10d-8746-4e15-a6d7-8542e6955c4e
p1005
V8a7cc079078e17fd20e068eb4bb0f056
p1006
sVcb14b854-a4ea-4c31-8e4b-4629635e55e4
p1007
V8a7cc079078e17fd20e068eb4bb0f056
p1008
sV70cdb3f2-4f62-4dd5-b074-653a21f2d97d
p1009
V8a7cc079078e17fd20e068eb4bb0f056
p1010
sV054972ab-23f6-4849-b2f7-63f38ff49130
p1011
V8a7cc079078e17fd20e068eb4bb0f056
p1012
sV41bf4a04-5694-4603-9a0e-e61c3cb8cbf8
p1013
V8a7cc079078e17fd20e068eb4bb0f056
p1014
sV08bb1f74-64d9-4448-890a-9999644e80c9
p1015
V8a7cc079078e17fd20e068eb4bb0f056
p1016
sVfda82573-f6e9-4a60-918c-a7164a2d84ec
p1017
V8a7cc079078e17fd20e068eb4bb0f056
p1018
sV70c508ae-df71-483c-b92f-f67127ae5e80
p1019
V8a7cc079078e17fd20e068eb4bb0f056
p1020
sV592648d1-ff95-4f1c-b890-1bcfc629e841
p1021
V8a7cc079078e17fd20e068eb4bb0f056
p1022
sVa488cfc7-968e-4322-98e2-12fa37b4b855
p1023
V8a7cc079078e17fd20e068eb4bb0f056
p1024
sVebf29033-7362-48d0-a509-a2e2eda93f61
p1025
V8a7cc079078e17fd20e068eb4bb0f056
p1026
sV9960cada-dde8-4dae-ae81-14051100b8a7
p1027
V8a7cc079078e17fd20e068eb4bb0f056
p1028
sV1b09d114-f638-40e1-80d9-0ddbb960f9c7
p1029
V8a7cc079078e17fd20e068eb4bb0f056
p1030
sV54561c3f-a01a-4117-bd2d-da6e9e0588c9
p1031
V8a7cc079078e17fd20e068eb4bb0f056
p1032
sV957f4898-69bd-4bb3-b621-f7654d82618d
p1033
V8a7cc079078e17fd20e068eb4bb0f056
p1034
sVf2cbc821-9886-444e-9b41-0429ca3aa0e2
p1035
V8a7cc079078e17fd20e068eb4bb0f056
p1036
sVaf4f2b67-cc8e-4e03-9750-3f35342a596a
p1037
V8a7cc079078e17fd20e068eb4bb0f056
p1038
sV5e85dd2e-f01d-4254-8e6e-8af18b81c902
p1039
V8a7cc079078e17fd20e068eb4bb0f056
p1040
sV959cfe3c-426b-430f-9837-1e41f7262d0a
p1041
V8a7cc079078e17fd20e068eb4bb0f056
p1042
sV873abc43-74fd-4a89-ac83-8de981788fc0
p1043
V8a7cc079078e17fd20e068eb4bb0f056
p1044
sV3b694886-2127-4314-ace4-1106b650392e
p1045
V8a7cc079078e17fd20e068eb4bb0f056
p1046
sV1b9f4afa-72b3-4e28-800e-6710415b5873
p1047
V8a7cc079078e17fd20e068eb4bb0f056
p1048
sV25dc92c5-13d1-4a47-9c14-2a0f1d04055a
p1049
V8a7cc079078e17fd20e068eb4bb0f056
p1050
sV8a53c4e0-152d-454a-a19e-b522ba9ef603
p1051
V8a7cc079078e17fd20e068eb4bb0f056
p1052
sV706d0dcf-7db6-4238-8719-96138a80efa6
p1053
V8a7cc079078e17fd20e068eb4bb0f056
p1054
sVaa89a844-bacc-41a3-9ced-e15b200f0df3
p1055
V8a7cc079078e17fd20e068eb4bb0f056
p1056
sV032ae2dd-bfcf-4cff-809d-6ad65d36794a
p1057
V8a7cc079078e17fd20e068eb4bb0f056
p1058
sV3b55e172-274b-4648-8857-8e0bf63d205d
p1059
V8a7cc079078e17fd20e068eb4bb0f056
p1060
sVd1eb0916-9933-4aac-8c65-b3146f46e02f
p1061
V8a7cc079078e17fd20e068eb4bb0f056
p1062
sVe81f7a52-80e0-46f3-b1f8-fa754a85c20c
p1063
V8a7cc079078e17fd20e068eb4bb0f056
p1064
sV0e4fbe81-5197-488c-a9f4-f314d1bb43a0
p1065
V8a7cc079078e17fd20e068eb4bb0f056
p1066
sV65868e80-2c1a-467b-b14d-b70c824ef528
p1067
V8a7cc079078e17fd20e068eb4bb0f056
p1068
sVe7d9de8c-ecd6-47c8-8878-6681e1ec6542
p1069
V8a7cc079078e17fd20e068eb4bb0f056
p1070
sVdad330b4-d384-4697-ace5-2013aec258da
p1071
V8a7cc079078e17fd20e068eb4bb0f056
p1072
sVe1b9b49c-61c9-4509-aa43-2da8ab0ddb2b
p1073
V8a7cc079078e17fd20e068eb4bb0f056
p1074
sVa4808da7-8324-4248-b6fd-34a86f4c84c1
p1075
V8a7cc079078e17fd20e068eb4bb0f056
p1076
sVb4f11a3f-d30f-4f35-be36-5b6b0d1364e7
p1077
V8a7cc079078e17fd20e068eb4bb0f056
p1078
sVefc2ac04-e936-42fb-a09d-ec2e06947537
p1079
V8a7cc079078e17fd20e068eb4bb0f056
p1080
sV2b63b529-0a98-4033-8934-4e30eb2a5a91
p1081
V8a7cc079078e17fd20e068eb4bb0f056
p1082
sVef03a55c-d5b0-492c-ba5d-2d4aece652bf
p1083
V8a7cc079078e17fd20e068eb4bb0f056
p1084
sVc4398eea-ab45-4bf5-9742-c07fd52a2a31
p1085
V8a7cc079078e17fd20e068eb4bb0f056
p1086
sVcf11a898-4387-43c4-a8dc-856f0de7ae9f
p1087
V8a7cc079078e17fd20e068eb4bb0f056
p1088
sV3bc0e84d-015b-4a97-b5bc-708cfb959469
p1089
V8a7cc079078e17fd20e068eb4bb0f056
p1090
sVce5f7377-1c0b-46e2-b057-f1307e1acbe2
p1091
V8a7cc079078e17fd20e068eb4bb0f056
p1092
sVa7d78dca-c83d-4cef-a55d-f836b892b68a
p1093
V8a7cc079078e17fd20e068eb4bb0f056
p1094
sVffa89512-5b02-44bc-83e3-37a091b921f5
p1095
V8a7cc079078e17fd20e068eb4bb0f056
p1096
sVb9d7e6f3-f9f8-44f9-8d8b-9310ae434d47
p1097
V8a7cc079078e17fd20e068eb4bb0f056
p1098
sVe1fe4d7e-74a3-49a3-acca-967f9b405190
p1099
V8a7cc079078e17fd20e068eb4bb0f056
p1100
sVd11b0e2d-66b6-4b13-b804-a090000a724c
p1101
V8a7cc079078e17fd20e068eb4bb0f056
p1102
sVef4ee143-80f2-48b4-bc20-c8d59e833a0f
p1103
V8a7cc079078e17fd20e068eb4bb0f056
p1104
sV212905ad-5588-468b-a8e4-bdbacf74d066
p1105
V8a7cc079078e17fd20e068eb4bb0f056
p1106
sVc9021ea5-fe9d-4a1a-bf6f-2dc32ff4a4a6
p1107
V8a7cc079078e17fd20e068eb4bb0f056
p1108
sV6c12f4e0-3ce8-45a8-a417-6814dbe0c537
p1109
V8a7cc079078e17fd20e068eb4bb0f056
p1110
ss.