(dp0
S'person_caseid_dict'
p1
(dp2
V10000000132432
p3
V21ef5736-2cd7-42c3-a889-02ee68ee45cd
p4
sV10000000132433
p5
Vec412e29-d39a-4d5c-94a5-4bf33f03bcf3
p6
sV10000000132430
p7
V304ac1ce-c376-487c-b013-a3f488b3565c
p8
sV10000000132431
p9
Vab15b9cf-65a2-475f-a887-143f93f4d31a
p10
sV10000000132436
p11
V1d275652-32ab-4566-ae62-cfe9640eb6a0
p12
sV10000000132437
p13
Vcff7919e-44cd-419d-bd98-5a0b24d4f4ff
p14
sV10000000132434
p15
V19930d4c-6bac-41f6-b6cb-0722b9ee9068
p16
sV10000000132435
p17
Vedad243b-ecab-4d19-a2c8-1654c23332e3
p18
sV10000000133181
p19
V4f5b3048-090c-48ad-9c9b-3405224542c9
p20
sV10000000133180
p21
V2d6c4ae6-b189-4ae7-9acd-5aa9cc81ff06
p22
sV10000000133183
p23
V2adadc2d-6859-4125-a693-55b522cb81b4
p24
sV10000000133182
p25
V19097f41-57b6-4950-a3d8-4d5e1d57e23e
p26
sV10000000133185
p27
V8e00e5ed-6618-44ae-8e81-6f9cafc3c3d1
p28
sV10000000133184
p29
Ve3a48f78-e622-4b4f-b347-ad9a6bc7792d
p30
sV10000000133187
p31
V870a62db-37f5-4c03-8e8f-122f36c87350
p32
sV10000000133186
p33
V55982299-0e60-460a-aa3e-06c522f34006
p34
sV10000000133189
p35
Vca26c1bc-c952-4421-941e-a0ba89df0914
p36
sV10000000133188
p37
Vd87a9eb7-51ad-4fe3-a5ed-b974ea6d62d7
p38
sV10000000151596
p39
V0265ca49-27f5-4ed5-9c2f-75158de661de
p40
sV10000000148972
p41
Vf95713e9-1325-4257-bf52-ee126bfc44f9
p42
sV65000002282
p43
V2058d0de-80f4-45a5-9da4-83a3f1ef43ef
p44
sV65000002280
p45
V651e7ade-8dc2-4fa9-a4b9-aee336fa7c28
p46
sV65000002281
p47
V54561c3f-a01a-4117-bd2d-da6e9e0588c9
p48
sV65000002660
p49
V3e0ba2f2-9b79-4640-b26b-9d7ea40d2475
p50
sV65000002661
p51
V51148e3e-a96d-453a-ade1-f5407ac5b92d
p52
sV10000000132388
p53
V4d8e53ff-8464-4813-8f20-7936ae7a9f34
p54
sV10000000132389
p55
Vb84bb76b-d65f-4abb-9e63-4bb9f9704d93
p56
sV10000000151523
p57
Vdb502975-db14-44c6-b4ac-0e6d2658c21d
p58
sV65000002148
p59
V4285205d-be98-4e39-836c-5533987a77bd
p60
sV10000000151521
p61
V47de0f8b-9642-46b6-88bb-25fad22e9929
p62
sV10000000151520
p63
Vdb8e76e2-8363-408f-9212-f13d1918bd6b
p64
sV10000000151527
p65
V959cfe3c-426b-430f-9837-1e41f7262d0a
p66
sV10000000151526
p67
V4009f5c6-2834-4751-a06d-65b41758e27d
p68
sV10000000151525
p69
V4755d876-942f-43c8-b1ae-c88bec5c25b9
p70
sV10000000151524
p71
V528b53fe-241e-4799-8030-cfe9ed3b3ce2
p72
sV10000000151529
p73
V3b694886-2127-4314-ace4-1106b650392e
p74
sV65000002142
p75
V9503aa9e-a2f2-4e63-ad48-2b8376b7421b
p76
sV65000002145
p77
V39c14c2e-40d5-423f-9074-cea98886cdd1
p78
sV65000002144
p79
Ve2ddba19-0c00-4264-97d6-617c3d57988b
p80
sV65000002147
p81
V52943d54-a0e7-4558-b343-1eec89860239
p82
sV65000002146
p83
Vadd7fc6d-deee-4baa-844c-b13135c6307c
p84
sV10000000148947
p85
V4b47bb77-a2d7-4ffd-a074-24e6d1ee3bbf
p86
sV10000000151712
p87
V54c33bf7-3a4b-45b3-84ba-f32839cf30c8
p88
sV10000000132341
p89
V71552d6e-eedc-47d3-b810-0dc3656afe63
p90
sV10000000148979
p91
V891e2356-fc94-444d-b507-9c6c9f3e10e5
p92
sV10000000132342
p93
Vcd301aec-1e88-4a56-a626-b976abbeddd3
p94
sV10000000131745
p95
Vc6716b9d-411b-408b-8065-3b4b01e22c42
p96
sV65000002719
p97
V69a6f981-1d1d-4d51-b6a9-05ca60ce5e25
p98
sV10000000131747
p99
Vce92b42d-bbdc-4051-86d3-2c5b3ae9f9bf
p100
sV10000000131746
p101
V8209b536-e034-4320-8f1d-c354d15eb83d
p102
sV10000000131743
p103
V5777c88a-33f5-4c43-91a0-86dfdd26314a
p104
sV10000000132402
p105
Vaa08b60c-ffe6-48f8-bda3-2094d4e06772
p106
sV65000002710
p107
Vb35dd156-c037-42a1-8aad-a1fea314ad8c
p108
sV65000002711
p109
V021aeb7f-719a-4d42-9935-b813671fd4d6
p110
sV65000002712
p111
V388d6f9a-b63c-484b-927d-4642aed62346
p112
sV65000002713
p113
V3ab1ca56-5f95-44f2-9ce4-5a60846599a1
p114
sV10000000131749
p115
V884ef37f-9b9c-4ede-8e51-e04c7781fcbf
p116
sV10000000131748
p117
V47b2759f-ed50-48eb-9b78-fc69d04e2e5c
p118
sV65000002716
p119
V55f612dc-4893-41f9-a0ae-0ea9fdaece07
p120
sV10000000151687
p121
V1b250374-3d6f-4597-bba5-29a70f887a2f
p122
sV10000000133155
p123
Vad19536f-ffbd-4aec-aafe-2022edcc16ae
p124
sV10000000151684
p125
Ve87f1feb-c8cc-4c30-8e12-bb1ad513e948
p126
sV10000000132347
p127
V4d32ea62-7d03-477b-a275-c28c1ecf3087
p128
sV10000000133243
p129
V92573fd4-b4f2-468e-a7c5-1c01e2640863
p130
sV10000000151677
p131
V65868e80-2c1a-467b-b14d-b70c824ef528
p132
sV10000000151676
p133
Vc3b418a4-fd8f-44fd-9cab-1c36f4805e7f
p134
sV10000000151675
p135
V64148515-1991-458e-8c16-e0da5fb49ffb
p136
sV10000000151674
p137
Va9f3afd4-15dd-4bd4-ad30-af46c14cb4f6
p138
sV10000000151673
p139
Vf92a9cb7-2eca-4b09-a267-606e948e8e50
p140
sV10000000151672
p141
Va97568b7-6de3-4bbb-8f77-2274c3160715
p142
sV10000000151671
p143
V706d0dcf-7db6-4238-8719-96138a80efa6
p144
sV10000000151670
p145
V7d194c52-9aa1-4ce1-b9c3-c1b0c2fd33a3
p146
sV10000000151679
p147
V97ec5774-5410-4d46-8919-f3bdb296c311
p148
sV10000000151678
p149
V8d2fbf72-20f8-4092-915f-5f0d344a5e51
p150
sV10000000132335
p151
Vd57a0c27-dea2-4b97-8664-7bc7401ba8f4
p152
sV10000000132334
p153
V9d906b7a-4535-49c9-9317-e877f9f74bc4
p154
sV10000000132337
p155
V5d9ad953-80e4-4536-955c-80ab3ebcaf5c
p156
sV10000000132368
p157
V558c8408-ad49-4709-b415-ffce0c1773ae
p158
sV10000000132369
p159
V9a30a3e3-9ec7-4736-8bce-a87fb2ea93cc
p160
sV10000000132366
p161
Vd02a5dee-59c9-4a9a-9729-5b6728735959
p162
sV10000000132367
p163
V5cc8c5af-2fbb-4946-9dbc-0318a4b070d9
p164
sV10000000132364
p165
V2d883005-4a7c-4960-8b67-68ca4006f1c6
p166
sV10000000148913
p167
V7a8a1189-3a5e-4dcd-980d-c4936acda8be
p168
sV10000000132362
p169
V8fa0f72f-2f6c-45d3-be48-e0a1aba03da5
p170
sV10000000132363
p171
V2e8e0cee-5ce9-40e1-88e8-1b91ce2e9967
p172
sV10000000132360
p173
V3afb0731-3b6d-4410-85f2-b1508e520e2d
p174
sV10000000132361
p175
V2cfb0c0b-3b1f-4e15-a3d6-3380704e019d
p176
sV10000000148965
p177
Vfe6c7b49-0d3f-43be-b515-0291e5a34d97
p178
sV10000000148964
p179
Ve2348597-6650-4be6-9737-f3f73d783be0
p180
sV10000000151709
p181
V63ede67f-d208-4bc7-b137-37e03d2a7b23
p182
sV10000000151708
p183
Vd8b69494-23dc-4a3d-ab3c-1778755c60e4
p184
sV10000000148961
p185
V9cf1c113-c141-48cd-a9a3-d22d0723ebcf
p186
sV10000000148960
p187
V9d04b39b-9460-4525-8217-9bc894b1c0cc
p188
sV10000000148963
p189
V095c5361-5cee-487f-863e-a089d0bff80f
p190
sV10000000148962
p191
V28d8a9fd-db4a-4dad-b3f6-2df6eaec1653
p192
sV10000000151703
p193
V3080e6cd-782e-492d-8a56-df212e6abb28
p194
sV10000000151702
p195
Veb2e1e28-db9f-499b-817c-a254e040681c
p196
sV10000000151701
p197
Vea0a19ff-448f-47f7-a1bf-f9c3f4f46c2b
p198
sV10000000151700
p199
Vc435df54-55b4-4991-9ba0-ad0995a19c77
p200
sV10000000151707
p201
V59483ecd-d3a7-4be2-96ea-77135ff79664
p202
sV10000000148968
p203
V20f4c6b7-3afd-4a98-9d5e-471ca3bf0bf3
p204
sV10000000151705
p205
V8a306191-e998-4d05-bc4d-b7d61d57e5e7
p206
sV10000000151704
p207
Vfd3afb07-3da7-4220-9cb0-a405721de29b
p208
sV65000002628
p209
Vdf2a6bb5-713c-4a47-ab55-5520b19d7a75
p210
sV10000000133144
p211
V8aff7a01-51a3-48d7-935f-5f072e392088
p212
sV10000000133147
p213
Vdf33befc-4e4f-43ec-8d66-75f73a192288
p214
sV10000000133146
p215
Va606092f-adbf-41a2-a676-1235f58285fc
p216
sV10000000133141
p217
V5ef78d36-e988-40d6-be79-a18ff880ac68
p218
sV10000000133140
p219
Va663106e-78e1-4e9f-83b6-275c87cc33d8
p220
sV10000000133143
p221
V4ddc8a8e-5fac-4742-bfef-2fadde9eb850
p222
sV10000000133142
p223
Vaeb79d37-658e-47c0-9256-43e8eecd6d77
p224
sV10000000128013
p225
Ve1fe4d7e-74a3-49a3-acca-967f9b405190
p226
sV10000000133149
p227
Vef1984cf-067c-4c0c-8bfa-300a9f659d87
p228
sV10000000133148
p229
V0b9065f8-1106-4a06-a1cf-8db535744ec7
p230
sV65000002629
p231
Vce680ab8-d077-44ad-86d4-baa7178af167
p232
sV65000002618
p233
V4d9b7067-4712-4951-ab5d-7ec459c76f20
p234
sV65000002248
p235
V9111efa9-65f4-4065-ba72-e14d18a26805
p236
sV65000002249
p237
V45e03242-4ed0-4192-bde9-ebc6b889d855
p238
sV65000002242
p239
V466a7c4f-b7cf-4187-9f6a-ef7009a17d33
p240
sV65000002243
p241
Vf3fc24ad-bcd1-4bc9-bd3e-65628ebe849e
p242
sV65000002240
p243
V1563ca9e-d697-4387-91e5-502f6817d7e7
p244
sV65000002241
p245
V9ed1f8ac-1a0b-40f0-9d36-b7d36cd18494
p246
sV65000002246
p247
Vaa89a844-bacc-41a3-9ced-e15b200f0df3
p248
sV65000002247
p249
Vf17be44a-d4a1-4409-b912-8d64c6f63ada
p250
sV65000002244
p251
V37e04cba-db2b-4b46-a3fb-331f22574099
p252
sV65000002245
p253
V90b1ff8d-fe01-4c7a-a924-49b93cfde28d
p254
sV65000002615
p255
V535d5990-ee10-43c2-8ae8-221c0e718ce8
p256
sV10000000151588
p257
Vf6b9d5af-c7fd-4b5f-b18d-2c325234fa03
p258
sV10000000132500
p259
V098c9c11-e866-46a8-a55f-2cffc5320e17
p260
sV10000000132465
p261
V722974f7-a612-4dff-85b6-d0b60ff14570
p262
sV10000000132464
p263
V5886eff4-5b4d-43b8-8817-ef915a6b9f23
p264
sV10000000132461
p265
Vdc97e87f-0181-4a38-ab33-54a95e9f85a5
p266
sV10000000132460
p267
V75f4f3d1-10d7-45c8-bb4c-a3ffe516f547
p268
sV10000000132463
p269
Ve6bf5f47-d88b-4096-a1bb-8210f5a8de82
p270
sV10000000132462
p271
V0c813ebc-d114-4fc1-92b8-ba095848d49f
p272
sV10000000132453
p273
Va708615e-7ea7-485b-93ef-9989e5554108
p274
sV65000002185
p275
V29d72de2-37e3-4c0e-bd72-45c1555d779d
p276
sV65000002184
p277
V1e6dcd5a-8b69-453e-a3c8-d1b6fadda2a1
p278
sV65000002186
p279
Vd11b0e2d-66b6-4b13-b804-a090000a724c
p280
sV65000002181
p281
Vc5d96c4a-8b22-4c41-b473-cda98eda1af0
p282
sV65000002180
p283
Vbacf99cf-2adf-4728-9c2d-2dc479f12309
p284
sV65000002183
p285
Vdf534c37-8ba6-4cd0-bdb8-4480ea181861
p286
sV65000002182
p287
V6fa454f3-a2b6-4c04-b4fa-f6bc21c60394
p288
sV65000002189
p289
Vcb3f5597-301e-4f0c-bc80-462a9d4a1c58
p290
sV65000002188
p291
Vbdedfbfb-7fca-43b0-89bc-e61550bf4163
p292
sV10000000133201
p293
Vad747427-c841-4981-b54f-49aba467de22
p294
sV10000000151581
p295
Vacd0fbb6-cea7-4bfc-96f0-e982aac1ebb9
p296
sV10000000151580
p297
V4509e10d-8746-4e15-a6d7-8542e6955c4e
p298
sV10000000151583
p299
Vd1eb0916-9933-4aac-8c65-b3146f46e02f
p300
sV10000000151582
p301
Va4808da7-8324-4248-b6fd-34a86f4c84c1
p302
sV10000000151585
p303
V68ca55cb-7070-438f-bd35-2b0165a18d2a
p304
sV10000000151584
p305
V8b7a83eb-fbca-4087-8ff0-da11f3a6c145
p306
sV10000000151587
p307
V2feb1b03-b2b6-49b0-9bf2-a0c4bfb78a58
p308
sV10000000151586
p309
V29cd4962-d256-4fc8-bd83-345d2e353c79
p310
sV10000000151589
p311
V2d1ac8a5-bd82-4c88-83bd-40106fdbd128
p312
sV65000002614
p313
V137de876-0259-4dc4-bf85-53a1e571ad3c
p314
sV65000002617
p315
V72a67452-ea5e-4e36-800f-5ba2b11bad62
p316
sV65000002616
p317
Vaca89ccf-525b-403f-a92e-962806a176fc
p318
sV65000002611
p319
V52f91206-cd1e-42d2-91ce-d89a156bb6c6
p320
sV65000002610
p321
Vde046902-60fc-4e43-8fe6-96463c4713a5
p322
sV65000002613
p323
V56b29093-40e3-48b0-a37c-a5c33d1897a0
p324
sV65000002612
p325
V44e3ecc0-eb35-43a6-aff4-b8472c6c6eaf
p326
sV10000000133202
p327
Vd611ccea-5248-488a-89b6-e7db970a41b8
p328
sV10000000133203
p329
Vd2157de0-3b8c-49ea-8e7a-2052ebaea0aa
p330
sV10000000133200
p331
Vcb4544a8-ebd2-4dc1-9182-3d6359e9b054
p332
sV10000000151528
p333
Vcb14b854-a4ea-4c31-8e4b-4629635e55e4
p334
sV10000000133206
p335
V83168949-4ac2-4483-8a55-911bd57dedfd
p336
sV10000000133207
p337
V0bbaff20-6424-4580-93e6-6616ad15d403
p338
sV10000000133204
p339
V61b0134a-5af4-4db1-b509-a0f0f232bf8c
p340
sV10000000133205
p341
Ve895fc4b-8e5f-4fba-b389-08b04729866a
p342
sV10000000133208
p343
Vb4609e9d-c073-4e33-8330-8f9d08c78d5b
p344
sV10000000133209
p345
V19163867-bbf3-42a6-8b3c-0a8df6516408
p346
sV10000000148945
p347
V70c508ae-df71-483c-b92f-f67127ae5e80
p348
sV10000000151518
p349
V6ba8e91b-84af-42f5-9614-805eccaddb19
p350
sV10000000151519
p351
V5e85dd2e-f01d-4254-8e6e-8af18b81c902
p352
sV10000000151513
p353
V0ed99224-eeb2-4564-b3b7-5eec7258a0fa
p354
sV10000000151516
p355
V71d818e0-ff42-4e1a-adc2-bbbe5f8d3401
p356
sV10000000151517
p357
V26feb29a-12ba-4710-b72b-c806c53cfdbb
p358
sV10000000151514
p359
V8d4a077f-10ca-4e7a-9e79-d52921c3c3b0
p360
sV10000000151515
p361
Vd765bb55-a8a0-405e-9387-c2455e234063
p362
sV10000000151732
p363
V94ae2bc7-1991-45ac-92c5-511a63e27691
p364
sV10000000151733
p365
V2a3e723e-e6aa-4e91-8c17-9a8a84ad7e4d
p366
sV10000000151730
p367
V83b033a8-e745-4de0-8f9d-b28026e55edd
p368
sV10000000151731
p369
Ve6c293fe-d749-48c4-9cf9-d6a6e929cb38
p370
sV10000000151736
p371
V47051c1c-cf0b-4236-918e-e35350c2cf32
p372
sV10000000151737
p373
V1b09d114-f638-40e1-80d9-0ddbb960f9c7
p374
sV10000000151734
p375
Va0e601a2-7bbb-4293-8c48-a6608aa0224c
p376
sV10000000151735
p377
V0c08121f-e4e5-44fc-808c-9a7afe2e4bf5
p378
sV10000000151738
p379
V182e4cb8-812b-4593-862e-db19fe39b137
p380
sV10000000151739
p381
V54eea3e6-d4fe-4e23-afa7-861903d095c4
p382
sV10000000148459
p383
V2f97f96f-757e-4682-af92-7abf9692ad08
p384
sV10000000148458
p385
V49512f4d-1b35-433a-aa50-1399018e382d
p386
sV10000000148451
p387
V81dee205-a304-47e1-9edf-c25fda64a55d
p388
sV10000000148943
p389
V27d617cd-c640-402c-8ebd-c5b904276338
p390
sV10000000148453
p391
Vf890aa5d-d2cc-4439-89ca-719459b29f48
p392
sV10000000148452
p393
V9995d98a-c7ab-4448-a25b-8d9fb043acb7
p394
sV10000000148455
p395
V4d920809-991b-4595-8d3a-3669e79677a7
p396
sV10000000148454
p397
V40dad995-b381-4faa-976f-2f516c7511d8
p398
sV10000000148457
p399
Vd08835fe-fc45-4ce0-929b-2254857953fa
p400
sV10000000148456
p401
V16c917e5-2b2b-4fcd-8264-ae573d2b0391
p402
sV10000000148929
p403
Vb4886a6c-d5ac-43df-bb89-ed46728a0af7
p404
sV10000000148928
p405
V41818f91-09b2-450e-83ba-3d808b560c52
p406
sV10000000132328
p407
V27df90cd-1a1c-47da-87d0-40561cfe40fb
p408
sV10000000132329
p409
V3e8efb3c-e785-4e89-ab84-9b6edb6b2d3e
p410
sV10000000148925
p411
Ve44a4446-3a89-41fa-9301-daea40a706d4
p412
sV10000000148924
p413
V67950e06-b8a7-40d0-a255-e41f8284e9d3
p414
sV10000000148927
p415
Vd6217492-6289-4bbe-978d-d108afbfe376
p416
sV10000000148926
p417
Vfe07e07b-7864-4beb-9081-f7f5a70aeaec
p418
sV10000000132358
p419
V90e81ff3-0931-4c98-b8c2-c6c1a25b5e4a
p420
sV10000000151648
p421
V52e72393-747f-4ae5-b157-0fefe43fb459
p422
sV10000000151649
p423
Vdd3605a1-e072-4dea-b58e-cc85fddb6145
p424
sV10000000151647
p425
V40cbb99a-461d-45fe-bf57-b7bd9949a903
p426
sV65000002206
p427
V15111516-cb13-4f2d-a0b7-d902e595eccf
p428
sV65000002207
p429
Vce5f7377-1c0b-46e2-b057-f1307e1acbe2
p430
sV65000002204
p431
Vd6b3795f-8c83-4ed0-ab1a-ea3012357550
p432
sV65000002205
p433
V1362e4d7-d132-4296-bf1a-460ad86c61d9
p434
sV65000002749
p435
V4f61576b-0b15-423e-9b43-39391d19df36
p436
sV65000002203
p437
Vadb8df8c-5231-4f20-b5ee-5379261cb7ca
p438
sV65000002200
p439
Vd9bb5465-6513-4c17-8aa8-2310c5895ac5
p440
sV65000002201
p441
Vff20d8f8-bd98-419c-a6ae-ed64d1ecc0b0
p442
sV65000002208
p443
Vcffafb3c-f0ac-44f9-a4c4-fa5a30c94063
p444
sV65000002209
p445
V4ac5886e-8b1c-4088-b617-4f67946f08f2
p446
sV10000000148973
p447
Vf1ccdcd0-b35e-4758-8164-1784e921ee5e
p448
sV10000000148990
p449
Vbd1edf52-871e-4e90-9c32-c3f0667ed4ac
p450
sV10000000148991
p451
Vdad330b4-d384-4697-ace5-2013aec258da
p452
sV10000000148992
p453
V07217651-9fed-452c-beb1-116c39b424b5
p454
sV10000000132429
p455
Ve3239b72-5476-4649-9859-49c9adaa6df4
p456
sV65000002149
p457
Vef4ee143-80f2-48b4-bc20-c8d59e833a0f
p458
sV10000000151522
p459
V5de42ef9-3fe3-43e7-bda1-bb435be4ed57
p460
sV10000000132421
p461
V77fdcc87-b8b0-4f58-b363-24cff62617ab
p462
sV10000000132423
p463
V6e2aae28-298f-426d-8216-8b6af502d0f3
p464
sV10000000132422
p465
V96d16d6d-9f0b-4b40-bc82-50896f867353
p466
sV10000000132425
p467
V7d2a6a82-1b1b-4871-9fdc-237a9ca9f76e
p468
sV10000000132424
p469
V3fcd1eb2-8d22-4a5a-b5b5-bb90e9770f5d
p470
sV10000000132427
p471
V8183bd87-6326-4aaa-aa18-5db6055a557a
p472
sV10000000132426
p473
Vea4a1066-4e3f-4779-b770-fdaba49d5e0f
p474
sV10000000128004
p475
Vaf9ead9c-3074-4566-ba61-9daf09521491
p476
sV10000000128005
p477
V827206f4-4f18-4bdd-8625-a2db8f20f993
p478
sV65000002271
p479
V26f28db9-bbf1-4644-baeb-da2aa0a8dd33
p480
sV65000002270
p481
Va7d78dca-c83d-4cef-a55d-f836b892b68a
p482
sV65000002277
p483
V659786dc-76cb-4953-88cc-78de4996e6b6
p484
sV65000002276
p485
V3dc6e2cb-9f3a-46f2-9b71-d2a84b60aeb2
p486
sV65000002275
p487
V916ae381-d2eb-4443-961c-793acba316eb
p488
sV65000002274
p489
Vdad40deb-bf02-4d82-bb2f-6cfbb2469058
p490
sV65000002279
p491
V3c5bb1fc-6202-4426-9833-2bf8c2d455a2
p492
sV65000002278
p493
Vfa34a664-9570-4fcf-a831-8eaa4a11381c
p494
sV10000000128008
p495
V6bf9e576-1f5d-4410-9a33-15697f12e273
p496
sV65000002143
p497
Vedbc6584-3d08-485b-86b1-daf56b749971
p498
sV10000000132391
p499
V347fcb79-a147-4d6d-b371-0bf0d8746d2d
p500
sV10000000132390
p501
V3332d9f8-510b-4943-a148-0f7f02b4c97a
p502
sV65000002708
p503
V7d7a30af-9c2c-4a4b-9122-82458f4d2688
p504
sV10000000132498
p505
V8cfb5d9e-06d6-46a9-88cf-ed457c276add
p506
sV10000000132499
p507
V79daba5f-ed79-4b28-b1b4-2c2fcf759844
p508
sV10000000128007
p509
Vd0e7bd9c-b6e1-482d-be6a-2e6cef8b0f7c
p510
sV10000000132494
p511
Vf02cb789-bf05-4d79-9de8-4d824c8bd946
p512
sV10000000132495
p513
V221fbddf-656d-4e15-8320-9e0e91517de5
p514
sV10000000132496
p515
V533df3ae-ecf1-426d-aaba-a8161b923681
p516
sV10000000132497
p517
Vf0396edb-6f42-4a87-a490-24d6274a7af5
p518
sV10000000132490
p519
Vea55bdf6-e1ee-4280-b8cf-c68bf0357d31
p520
sV10000000132491
p521
V25e5cd7c-884b-4164-8a03-260cbc8bb005
p522
sV10000000132492
p523
V0cf83b4f-618c-4b52-9cfd-c0083b8355fa
p524
sV10000000132493
p525
Ve54bcdf4-1ace-42b1-a99a-ec565753b703
p526
sV65000002158
p527
V1822b843-06e7-4f0d-af1b-528d57e281fb
p528
sV65000002159
p529
V7a142e46-eb0e-4ed2-8202-81ac5c1490fe
p530
sV65000002156
p531
V9fad93cc-6296-4928-a0c6-a6037326856d
p532
sV65000002157
p533
V6710a75f-15a5-4d02-8f01-563630a1ad38
p534
sV65000002154
p535
Vf66fdc2e-05e5-488d-96b5-cf515af03ce5
p536
sV65000002155
p537
Va488cfc7-968e-4322-98e2-12fa37b4b855
p538
sV65000002152
p539
V8c3a1766-b9bc-458a-b828-11f0d0731a28
p540
sV65000002153
p541
Vaab4d9b0-068d-4e75-85f3-9e97ff923f58
p542
sV65000002150
p543
V0a0c2770-9114-442f-a085-b30981c9ca38
p544
sV10000000151693
p545
V70cf9a6f-dede-4bbe-895e-0e5d42f7574b
p546
sV65000002729
p547
Vb2ff198b-b7ec-4678-9080-5d9cbc728828
p548
sV65000002728
p549
Vdf322ade-f1e9-4b6d-9251-b4cee32c60be
p550
sV65000002724
p551
V9eaa66c1-7b0a-4eef-a47a-fe3a1f917a96
p552
sV65000002727
p553
Vad731b75-db3a-4c05-8122-2b7ae7b7f164
p554
sV65000002726
p555
V30b4c37c-1421-4c5d-873a-504d5cba19f8
p556
sV65000002721
p557
V70cdb3f2-4f62-4dd5-b074-653a21f2d97d
p558
sV65000002720
p559
V1660005a-4439-42bd-b386-8880a74fc78c
p560
sV65000002723
p561
V5670cfc9-b3fa-4374-9133-7d5fb13e38a7
p562
sV65000002722
p563
V2b71a325-64f8-488e-b56c-950176103eae
p564
sV65000002659
p565
Vfa30d026-28d2-4889-a250-0a12bc5dee6e
p566
sV65000002658
p567
V63ce5473-85d8-4d8b-9776-88c912112ee8
p568
sV10000000133191
p569
V8f7ab3c3-54f4-4e0a-b920-d6368dcd022e
p570
sV65000002651
p571
Vf9c8ad9f-6d48-49f7-bf7e-7ad5630880bc
p572
sV65000002650
p573
V62a8a6a5-495f-4432-95ac-5efe5ce9da74
p574
sV65000002653
p575
Vc08dc799-cad0-4de4-97ec-0e621d6f2676
p576
sV65000002652
p577
V7f68814e-9c04-4630-8de7-7c9708e4d109
p578
sV65000002655
p579
V004a08d9-4e1f-42fc-9d07-eac26ec24222
p580
sV65000002654
p581
V33438667-395b-452b-a5c0-eb12d4a95952
p582
sV65000002657
p583
Ved3d26b2-46cb-46b1-a5eb-038912dba75d
p584
sV65000002656
p585
V92d0ad16-f3b7-4c9c-b7f7-ad7a81c86060
p586
sV10000000151602
p587
V48810349-e041-4e81-8abe-44d4ec4aeb94
p588
sV65000002718
p589
Vd0fa7609-f04e-487a-a5c6-c216e1b78fe5
p590
sV10000000151600
p591
V19230ea5-2986-423c-b7c1-870403a9b691
p592
sV10000000151601
p593
V00f435a4-f680-41ba-8f5b-6d6190dcae24
p594
sV10000000151606
p595
V1c50a855-b5f4-4991-b5da-51036354b904
p596
sV10000000151607
p597
Vc4398eea-ab45-4bf5-9742-c07fd52a2a31
p598
sV10000000151604
p599
V5e4fe37b-ffa2-4baf-baa7-9959e0965eab
p600
sV10000000151605
p601
V11413ee2-9a6a-42fe-bb52-e8079a931e1b
p602
sV10000000151694
p603
Vecbc413c-49d3-4318-87da-8ae63d70a1b6
p604
sV10000000151608
p605
V1275df4b-70eb-466e-932b-4c1fd4e09681
p606
sV10000000151609
p607
Vd1f42238-bb7c-411f-92f4-0367b41ef485
p608
sV10000000151537
p609
V778ead35-9b59-44c6-94d3-4c40020b82df
p610
sV10000000132375
p611
Vc8cfe95c-1132-4d2b-a011-25548545604d
p612
sV10000000132374
p613
V828b488a-3867-49d7-9f3b-b525a1d88255
p614
sV10000000132377
p615
V83b7d829-7a74-4597-881f-37ad0e72c702
p616
sV10000000132376
p617
Vd71be69e-3d75-43d9-ac9d-9a7e10857e75
p618
sV10000000132371
p619
V6be41a4f-a5d0-4c37-90e2-1df3f973e493
p620
sV10000000132370
p621
V290f41d1-1699-44ed-a6ca-69558c0ab2b0
p622
sV10000000132373
p623
Vb69b6e15-9d07-4209-98e7-b4e11c902a4c
p624
sV10000000132372
p625
Vdee09e31-2de0-4e2a-8fe0-a129f941d050
p626
sV10000000148950
p627
V2e99d592-6392-4eb5-8d14-4d58358cb967
p628
sV10000000148951
p629
Vcdd1f334-43dd-4ac3-b845-88e28a970d0b
p630
sV10000000148952
p631
Vc3b2f20c-8140-4ed9-9530-26bd76caad15
p632
sV10000000148953
p633
Va2010948-45eb-484d-b3cf-6a064c0dbbe5
p634
sV10000000148954
p635
Vf5299d04-e348-4f3b-9026-4dd85ec9104f
p636
sV10000000148955
p637
V806e3989-b9ee-4e2b-8cd3-ab0129953803
p638
sV10000000148956
p639
V861b250e-31b4-45ac-9ee7-3739184a1ef0
p640
sV10000000148957
p641
V96c5cea4-e208-487e-be66-044ba0562e0f
p642
sV10000000148958
p643
Veb4b13ab-03a9-48bd-8466-3b0ef585feff
p644
sV10000000148959
p645
Vb5dea8c6-1f3a-4e48-bbe7-c81187127b42
p646
sV10000000133170
p647
V6a734b01-2d87-44ab-81ba-a006b2244e8c
p648
sV10000000133171
p649
V11057f70-84fa-4c82-86c8-83a20ab15e97
p650
sV10000000133172
p651
V8b598ac7-e399-41a8-882c-cc6f2b706b1e
p652
sV10000000133173
p653
Vdc4bc1d8-c247-4e0f-9b52-f7299511b698
p654
sV10000000133174
p655
Va61ba368-8dce-4b5b-a01e-33e83893f234
p656
sV10000000133175
p657
Vcf85c26f-10f8-49a4-8221-75a6594b94b3
p658
sV10000000133176
p659
V747eb9ca-bacd-4637-98c1-f9af13d59f35
p660
sV10000000133177
p661
V637b75f9-d7c0-432e-a890-dd67a3d87f99
p662
sV10000000133178
p663
V4ff6d2c8-2ace-4dfe-87bc-db4d749ae257
p664
sV10000000133179
p665
Ve01376dd-8733-4903-b522-37c3f9118f4f
p666
sV65000002715
p667
V48a86686-fa7e-416f-9efe-240d05af548e
p668
sV10000000151685
p669
Vef03a55c-d5b0-492c-ba5d-2d4aece652bf
p670
sV65000002717
p671
Vec85fe68-7894-48e6-bb7f-1b7beac334cc
p672
sV65000002179
p673
V25dc92c5-13d1-4a47-9c14-2a0f1d04055a
p674
sV65000002239
p675
Vd43e1930-f137-41ea-926a-5a7dfd642b81
p676
sV65000002237
p677
Ve876b077-b8ff-44d3-9291-69c7186096db
p678
sV65000002236
p679
Vafa6d5a0-0c59-4043-ab5b-ad9e97496eac
p680
sV65000002235
p681
Vee676f95-889e-41cd-a5ba-819197b810e9
p682
sV65000002234
p683
Vf3c3851c-dd89-44d0-a899-f48655817727
p684
sV65000002233
p685
V88ee7e6b-9329-4820-93d5-e4a5d7240b81
p686
sV65000002232
p687
Vfda82573-f6e9-4a60-918c-a7164a2d84ec
p688
sV65000002231
p689
V7f6ea44d-4a8e-4ecb-a166-248c401a5b86
p690
sV65000002230
p691
Vf68fe7ef-4589-47cb-af8e-32aec9e4d0da
p692
sV10000000151592
p693
V0dddc665-f059-496c-886a-88e59393e19d
p694
sV10000000151593
p695
V8c8c29a5-5ed4-4c59-b141-d9b2cc1f5aa9
p696
sV10000000151590
p697
V5aec111d-6cc8-4900-84ad-88fa2a693cd7
p698
sV10000000132450
p699
Vbc14cb35-f876-4718-9a27-36d575b72731
p700
sV10000000132451
p701
V133ac909-27de-4d12-9c79-5dd39874d2a9
p702
sV10000000132452
p703
Vf75264dc-b236-4ec3-ba6a-459c38988d00
p704
sV10000000151591
p705
Vf93b0be3-8d10-43b0-b3b6-4da2720720f8
p706
sV10000000132454
p707
V89dded7e-431b-4a29-873d-b320027446b0
p708
sV10000000132455
p709
V1ee6f03d-c974-43c3-b645-cbb27e87ccd7
p710
sV10000000132456
p711
Vfabfc7e7-96ac-4191-a6d7-27b1967e58dd
p712
sV10000000132457
p713
V98d76b3c-e0b8-439a-89e9-3a19610608fc
p714
sV10000000132458
p715
Vd43fe523-4f74-4e31-bea1-5cd024bcfda1
p716
sV65000002193
p717
Vf6746d6f-7cb2-46c7-b54c-e52fc69dee5f
p718
sV65000002190
p719
Va39dc99a-0361-443b-a775-99be8d039608
p720
sV65000002191
p721
V1ed42530-9754-4a4c-9c2f-15c4f2c311b6
p722
sV65000002196
p723
V512e886a-a871-4129-82c5-9f6c1b5cb591
p724
sV65000002197
p725
Va7dd15f5-411f-49e6-8fe1-626149e082ae
p726
sV65000002194
p727
Vb2ba56a2-e720-4bda-95c0-eb20c49054ae
p728
sV65000002742
p729
Vc3fd04da-9438-43d8-8181-9b00919484b0
p730
sV65000002583
p731
V3eefde13-746f-4cdf-9ffc-8fa0ba0b7bba
p732
sV65000002585
p733
V8fb94684-f11c-489a-a061-50abedaf47f2
p734
sV65000002741
p735
V4e1bd509-2e4e-442c-ae70-9645157fa304
p736
sV65000002587
p737
Vebf29033-7362-48d0-a509-a2e2eda93f61
p738
sV65000002586
p739
Ve3ff2745-68f0-4813-b5af-bc739bbe1492
p740
sV65000002589
p741
V155a3e7a-4ad8-4046-96c5-cbc8a34b8c2f
p742
sV65000002588
p743
V3e5cf9af-d394-4367-9635-c4f1954dad05
p744
sV65000002740
p745
Vae6496f9-e110-4725-967b-147d4267d81e
p746
sV65000002622
p747
V010db0a5-b102-4966-9cc2-20614bc780ac
p748
sV65000002602
p749
Veb14a069-8cf4-466c-8518-6d122c60ec1a
p750
sV65000002603
p751
V3b6588a9-9b7f-453f-9a30-d508b10b299d
p752
sV65000002600
p753
Vdad6e97b-e18f-453c-88a0-843dbf07dc03
p754
sV65000002623
p755
V28be4630-aee8-46b5-842c-86c673f7e053
p756
sV65000002606
p757
V879a95a2-8e14-4e51-8b5d-3fa6bdb4b638
p758
sV65000002607
p759
Vba799295-0a5c-4a33-bc42-916f017361f7
p760
sV65000002604
p761
Va9c2f06b-5968-4a46-89ce-1fd6bbd10076
p762
sV65000002605
p763
V7f798310-64cd-445d-a9a4-5ae37e24b2dd
p764
sV10000000133168
p765
V7fc61802-3522-4014-9272-a8f773198620
p766
sV10000000133211
p767
V558ef027-3638-4eed-9fe1-67992fc9c029
p768
sV10000000133210
p769
V572d338c-1a0c-4917-afe2-d518851df3f4
p770
sV10000000133213
p771
V72c9c1f0-9684-42f5-8e63-c288b82e5e3c
p772
sV10000000133212
p773
V40451bb5-1687-4d04-aa1f-0fe1c5d20b13
p774
sV10000000133215
p775
V3b8c2138-d982-4fc0-8f61-6b9861467c46
p776
sV10000000133214
p777
Vd2b5541b-0cb5-49f8-a042-10f454451d05
p778
sV10000000133217
p779
V5f34d226-4b74-4107-9253-f397569989e0
p780
sV10000000133216
p781
V9ceb51a2-5cca-432b-b1d3-01a94132b371
p782
sV10000000133219
p783
Vd2b4e7a4-dd6d-4c84-baf3-b54f46a027ff
p784
sV10000000133218
p785
Vc8791d02-162b-42a6-8340-cbff9767188f
p786
sV65000002627
p787
V7ec0d7a3-fa48-447a-8c29-a34cd353acb9
p788
sV65000002695
p789
V032ae2dd-bfcf-4cff-809d-6ad65d36794a
p790
sV65000002166
p791
Vfc745567-7283-4e6c-9073-8edd861cb862
p792
sV65000002697
p793
V1b9f4afa-72b3-4e28-800e-6710415b5873
p794
sV65000002696
p795
Vdcc7d92b-1f68-4a54-b718-dab25a696a3b
p796
sV65000002163
p797
Vdba3ede7-b6d3-4b6b-b40e-ffaa83c681b3
p798
sV65000002162
p799
V42328ae6-27fd-4f47-b977-1911dc7ea2be
p800
sV65000002693
p801
V1c8953fa-57ee-46a8-bd84-e9689797ba45
p802
sV65000002160
p803
V910af36d-5840-45ae-8878-a5b70af3f007
p804
sV10000000132343
p805
V56883dbc-1e35-412e-8747-1f11377630a8
p806
sV65000002699
p807
V44eebe87-e079-4e79-8c46-b0cffddf9f56
p808
sV65000002698
p809
Vcef8e428-41cf-4229-b4e3-4acb650ebd7e
p810
sV65000002169
p811
Vb7208f33-fd16-477d-b1ae-7b31a209adf2
p812
sV65000002168
p813
Va479dc7d-2602-4fd9-a0ee-9d4536ed2aee
p814
sV10000000151721
p815
V61a0cdcc-a47e-480d-88ed-af2dad227caf
p816
sV10000000151720
p817
V7351085d-d703-4aa7-bf3f-493d803117a3
p818
sV10000000151723
p819
V15f176e0-c96b-4f77-a010-d5852d098dad
p820
sV10000000151722
p821
Vdbac4090-f35e-4f80-9314-9f9ff5b7583c
p822
sV10000000151725
p823
Vb7514c5f-fd48-4c92-b5b9-2b3370b7de84
p824
sV10000000151724
p825
V486a262d-253e-411a-815b-0cb51e17c112
p826
sV10000000151727
p827
V43734043-9bbd-437b-a6ce-99c0028896ce
p828
sV10000000151726
p829
V982c7176-d631-402b-b710-2934421243fe
p830
sV10000000151729
p831
V078bfd27-9368-4775-b0e8-1726d87361a2
p832
sV10000000151728
p833
V8f205c48-18a1-469c-b70f-d40f383fb52d
p834
sV10000000148464
p835
V75e44a2a-40e5-4365-ad4d-109dab628c22
p836
sV10000000148465
p837
V04739c59-9c3c-4956-b08d-b5d734254cf9
p838
sV10000000148466
p839
Vee32b48a-e1d2-40ca-a821-c73a7212f791
p840
sV10000000148467
p841
V1099da2a-f703-4879-b44a-f369102419cb
p842
sV10000000148460
p843
V9b2e9a25-4652-4a70-ac00-11dfd8cd01b3
p844
sV10000000132344
p845
V7cfda589-b89a-4100-88d9-d11a0c0631a6
p846
sV10000000148468
p847
Vbf5aea35-11f5-43b7-a4ba-7fe121b3b05d
p848
sV10000000148469
p849
V53c2d673-9239-4faa-b5a1-bf3387c46cdf
p850
sV10000000132331
p851
Vf554c10c-aa18-499f-b051-e2dfa1aa3c84
p852
sV10000000132330
p853
V065fa49d-5147-41f2-9892-3dac7db7bb3e
p854
sV10000000132333
p855
V167c963a-a520-476d-a5a9-27e3ffed31f8
p856
sV10000000132332
p857
Vaeea4998-64bf-4288-b6d2-8b532af8e302
p858
sV10000000148910
p859
V380ccd8f-0ed8-45cd-93af-52e09c7184f8
p860
sV10000000148911
p861
V029ccdde-474a-4025-82ab-8cf04577e8d6
p862
sV10000000148912
p863
Vcdca7303-faed-4196-a65b-dced062e5024
p864
sV10000000132336
p865
Vf52b5a1a-d54a-472d-8464-338be0b6f03e
p866
sV10000000132339
p867
V0c358094-2315-4441-a0a7-245f033b4c35
p868
sV10000000132338
p869
V9a554afd-c133-47ba-b815-5671b1abb14c
p870
sV10000000128011
p871
Vcf11a898-4387-43c4-a8dc-856f0de7ae9f
p872
sV65000002263
p873
Vbbbf8943-e188-4da4-87a6-62cbac53c1b6
p874
sV10000000133225
p875
Vcb8a6f93-8471-4856-ac77-c8248d7075e2
p876
sV10000000151603
p877
Vee5ab275-17aa-4c3f-8c7d-78e3290dae83
p878
sV10000000128016
p879
V3bff67ff-6ca5-4e87-a538-01755e8e9527
p880
sV10000000151659
p881
Vf4a783e2-bd71-424c-afbd-a02cf1025531
p882
sV10000000151658
p883
V1bcf7b28-731b-4518-944d-b2a918fc590c
p884
sV10000000151655
p885
V66c99ac7-7570-41f8-a244-3971dacaf496
p886
sV10000000151654
p887
V5bfc01a6-e679-4261-85bf-304421397a1f
p888
sV10000000151657
p889
Vb65537cf-5685-4176-822a-c2bcfe420396
p890
sV10000000151656
p891
Vc6696165-7979-4e00-9b13-10e237af5c91
p892
sV10000000151651
p893
Vc5db4656-762d-46e4-8e75-1c8a99495453
p894
sV10000000151650
p895
V75f9835d-3faf-4ff7-b17d-4d033a5545ad
p896
sV10000000151653
p897
Vd8e8ef4e-4602-47da-a5e7-a04f43dfc79c
p898
sV10000000151652
p899
Vf70ee60e-d429-4414-8c6e-fcf26b250481
p900
sV65000002268
p901
V45409cb9-d3e4-4c60-81b1-1adda9f5fbb0
p902
sV10000000132346
p903
Vf14b08de-94b7-4110-979e-04fd79b3c772
p904
sV65000002678
p905
V8a53c4e0-152d-454a-a19e-b522ba9ef603
p906
sV10000000148989
p907
Vc38a8ed1-9609-40ca-8ff7-0a39fcc151e8
p908
sV10000000148988
p909
V802b0064-06b8-45e2-ad4c-34e5a1035c12
p910
sV10000000148983
p911
V7f7fa7d6-a5ae-4071-a8c0-45ae4f46930c
p912
sV10000000148982
p913
V219926ce-cd3d-447d-bf23-2663edd82367
p914
sV10000000148981
p915
Va45216ff-de19-4bee-b689-596f74146af5
p916
sV10000000148980
p917
V01647ee6-12ce-450e-89ab-424ca30ccae2
p918
sV10000000148987
p919
Vb6e7808b-9074-41d2-8416-ce5862b075b6
p920
sV10000000148986
p921
V9102de37-2a3f-4ffd-8d41-05ab7032f6b0
p922
sV10000000148985
p923
V7beb9567-f0de-4dc2-b8ff-d52ee449dd9b
p924
sV10000000148984
p925
Vaef47c14-14c9-4ec0-9478-1333052004e4
p926
sV65000002165
p927
V567ffbf7-80cb-430d-a903-74a97b0e4a2b
p928
sV65000002260
p929
Vbf37a9bc-bd61-419f-9314-e9c7fabf89cc
p930
sV65000002261
p931
Vded9d897-fadc-447f-9b2b-1a2f03c1be3c
p932
sV65000002262
p933
Vf2fc6629-134e-4dec-aba0-1f7a9870b1af
p934
sV10000000128010
p935
V86f0b092-5a83-4da2-8c51-9f50d4964436
p936
sV65000002264
p937
V95f78146-91b1-42b9-a588-bd06f0fe388a
p938
sV65000002265
p939
V0a6cf4a8-6be4-48db-b6c1-7756daf6f982
p940
sV10000000128015
p941
V568d8361-f6f9-45ae-acf9-377418e30039
p942
sV10000000128014
p943
Va5279ce9-78f8-4b78-89a7-ffef93b05b4e
p944
sV65000002630
p945
V9d4680d9-20a0-4305-957e-9b3c83f2acd4
p946
sV65000002269
p947
Vb945cb29-91b1-466e-939c-6abd50674aaa
p948
sV10000000133139
p949
Ve6dd3049-1abf-47da-aa23-d5dc64c8c901
p950
sV10000000151536
p951
V908a357e-eb0f-40f7-8ad6-985d7ff4f68c
p952
sV10000000132345
p953
V44ea4034-c107-4789-8aab-cef0844bbcee
p954
sV10000000132489
p955
V475c07b1-5062-40c3-9b09-9813ac54efbf
p956
sV10000000132488
p957
Vc73cac9f-3f0d-477c-8975-97cc2513122d
p958
sV10000000132483
p959
Vfef88513-f0bf-4b21-8960-0f371ddff593
p960
sV10000000132482
p961
Vdf419556-499f-4bc0-8a73-d2a566631ac4
p962
sV10000000132481
p963
V8ec6e66f-fb41-43b6-b397-9cb6c03c1279
p964
sV10000000132480
p965
V484389e3-8012-4533-b06b-d8f222c6a5c5
p966
sV10000000132487
p967
Vdb8871ca-264e-4b68-8c5f-c72aa8469262
p968
sV10000000132486
p969
V098deaeb-c8b9-42ea-9e8a-6040daed0061
p970
sV10000000132485
p971
V6d55e237-1620-4bf6-8b6c-422947c2d352
p972
sV10000000132484
p973
V3be8a9eb-dce8-4a34-8912-d3607a366bcd
p974
sV10000000131744
p975
V79b85f0f-43f9-4fb1-801a-d64abbf54f03
p976
sV10000000151683
p977
V806a3087-a473-4732-a25d-56e3a8feb49b
p978
sV65000002732
p979
V687edb82-6d59-49b1-819d-90b326bacbd9
p980
sV65000002733
p981
Vbfd27e9a-7adc-4f8a-9b70-6aad9eed35eb
p982
sV65000002639
p983
Va58fb489-d475-43a4-8ca1-14e9a213db1d
p984
sV65000002731
p985
Vb90975f6-af0e-4b66-99a1-c228f14f6ebc
p986
sV65000002736
p987
Vdddc92c3-434d-47c0-91ab-213c5c6516f7
p988
sV65000002734
p989
V72876e54-4587-468e-9334-72e7d1b231c6
p990
sV65000002735
p991
V22fe2afd-2aff-4d8b-9f2c-dcc9d7713342
p992
sV65000002633
p993
Vfb5d6c0a-e0f7-4e45-a737-fcf9e66e562e
p994
sV65000002632
p995
V9960cada-dde8-4dae-ae81-14051100b8a7
p996
sV65000002631
p997
Vd2df222b-5681-40db-8783-47c6875be3b3
p998
sV65000002739
p999
Veebe4fc9-c35e-4f0c-a184-1352e0eebbea
p1000
sV65000002637
p1001
V5f762de2-ffa6-490a-9c15-14998be1920a
p1002
sV65000002636
p1003
V5f4e029e-6e14-401c-b616-9e2f79edeb4d
p1004
sV65000002635
p1005
V92fa343d-bb40-4abf-8bb6-f6968662e4c7
p1006
sV10000000132403
p1007
Vd1f75978-b960-4819-bf25-979b3b4f74a5
p1008
sV10000000128012
p1009
Ve3b7d366-aeea-4ce6-9997-ce67feb26382
p1010
sV65000002648
p1011
V054972ab-23f6-4849-b2f7-63f38ff49130
p1012
sV65000002599
p1013
V7d4efaa5-4905-42eb-98db-150ea0d687d8
p1014
sV10000000151578
p1015
V592648d1-ff95-4f1c-b890-1bcfc629e841
p1016
sV10000000151579
p1017
V05333172-5c8d-4204-8b79-52de435012a6
p1018
sV65000002644
p1019
V36095ebf-ce13-4a48-a265-9da8f5dced45
p1020
sV65000002645
p1021
V38190aa8-aa04-42c5-99ae-b1ebfc498a72
p1022
sV65000002642
p1023
V9b8b09bd-dc83-46c4-88b3-239739a92120
p1024
sV65000002643
p1025
V19b4496b-9a52-4a8f-9d9a-89871134900a
p1026
sV65000002640
p1027
V0d4ce6d5-6b91-46f5-9fca-e826798510de
p1028
sV65000002641
p1029
V40417892-3bc9-4a2e-8bbf-01011d645cf5
p1030
sV10000000151611
p1031
Ve1b9b49c-61c9-4509-aa43-2da8ab0ddb2b
p1032
sV10000000151610
p1033
V8e53206b-6377-45aa-a56a-be4396811662
p1034
sV10000000151613
p1035
V99f80aa8-cbe4-496e-a754-9b19286b67ba
p1036
sV10000000151612
p1037
V5d0c106d-8dcb-4e60-a751-f5dc96e1f3a1
p1038
sV10000000151615
p1039
V068daa9a-ff0f-4a91-9177-1d32f6006643
p1040
sV10000000151614
p1041
V6fa4f32d-5e75-4eef-bddf-e443c4520cdc
p1042
sV10000000151617
p1043
Vee42a00c-f77a-4c05-bf62-fac5c6073400
p1044
sV10000000151616
p1045
Vd6cf371d-a87d-46db-b434-6f4fe85fee12
p1046
sV10000000151619
p1047
V50f87a68-e5fe-40f4-8f74-c21d623a3021
p1048
sV10000000151618
p1049
Vec3c6fdd-5fcb-4150-8323-5b160f9123bc
p1050
sV10000000132348
p1051
V872faa3b-1222-4909-bfd5-2d0afd608839
p1052
sV10000000132349
p1053
V23edd83e-04a5-48c6-a504-a19fd7166eb0
p1054
sV10000000151688
p1055
V41bf4a04-5694-4603-9a0e-e61c3cb8cbf8
p1056
sV10000000151689
p1057
V08bb1f74-64d9-4448-890a-9999644e80c9
p1058
sV10000000148949
p1059
V7632b1a0-8d96-45b8-885f-4f39950d6aa8
p1060
sV10000000148948
p1061
Vc641405a-d691-4074-ad26-406667dac1cd
p1062
sV10000000132340
p1063
V1f577cf5-79f0-4e59-82cf-3418fc00af2f
p1064
sV10000000148946
p1065
V86e89d60-55b5-4948-bbf3-db1775c4e362
p1066
sV10000000151680
p1067
V737ab767-f42b-4f64-8e62-0f2312b01af2
p1068
sV10000000148944
p1069
Vb26b2b4b-388d-470b-8736-1c392911264f
p1070
sV10000000151686
p1071
V6c3f8914-1056-4686-aeff-88d526856f4b
p1072
sV10000000148942
p1073
Vb4b66aea-03e7-4a3a-b6aa-643321b29b65
p1074
sV10000000148941
p1075
V6c46b9ae-3666-46ad-8ada-390cafea667e
p1076
sV10000000148940
p1077
V370799d4-8a32-4d56-bb8c-bb3aa8752203
p1078
sV65000002199
p1079
Vd7287a31-6cf9-4b51-b9cd-58c9273d3c51
p1080
sV10000000132365
p1081
V660ea66c-0225-4325-8e3d-74ac0486d666
p1082
sV10000000132448
p1083
V1827d822-0efe-4f63-abc8-cbe086e2b2c3
p1084
sV10000000132428
p1085
V9e5b847d-9cc4-4a93-9dbf-b1e3fe704a4c
p1086
sV65000002709
p1087
V36541f77-9284-4398-b592-d990e2807782
p1088
sV65000002192
p1089
V5d022f25-b96b-4e3d-b96f-adca37f7d6b7
p1090
sV65000002266
p1091
Vcc35db02-13af-4237-99b8-9b2cce9b02cf
p1092
sV10000000132459
p1093
V047d7648-052a-4228-adc1-45b8eea3c74e
p1094
sV65000002228
p1095
Vc2c4d3f4-1b7b-49e8-b006-68e2033ff957
p1096
sV65000002229
p1097
Vb11ac781-3bbf-45c6-b8ca-af9aa68977a2
p1098
sV65000002224
p1099
V5b909675-1b23-44de-a3a4-e06134bdb519
p1100
sV65000002225
p1101
V1a8b0106-4888-459b-a2f7-6483cfba0a91
p1102
sV65000002226
p1103
Ve7ae9ef5-f12e-40ee-b603-0424e886c143
p1104
sV65000002220
p1105
Ve81f7a52-80e0-46f3-b1f8-fa754a85c20c
p1106
sV65000002221
p1107
V4dcbd724-75a3-4ddf-8672-c435cd6e27e4
p1108
sV65000002222
p1109
V7f3ea340-14dd-4f6b-be16-cbd5c1a5af73
p1110
sV65000002223
p1111
V9c8ac96d-4b39-4604-b12e-940efa242c4f
p1112
sV10000000148966
p1113
Va11983c0-b191-4285-be4c-b96476620048
p1114
sV65000002730
p1115
V7b84f3df-e400-4e62-90bd-2b348edb7f2e
p1116
sV65000002195
p1117
Vcc929f7c-8d69-4c29-836b-4ecc18dbb489
p1118
sV10000000132357
p1119
Vefa2d6b3-2468-4515-b570-b254f0caa5b0
p1120
sV10000000132449
p1121
V5e7400ea-f150-47f1-9d45-27bd3ff32f8e
p1122
sV10000000132356
p1123
Ve2843afb-7984-4846-a2b7-364a5c103af0
p1124
sV10000000132447
p1125
V3dc1ede6-88fa-4cbe-b1d9-0b7031fbeba3
p1126
sV10000000132446
p1127
V0a19d38e-5339-4578-a866-45e1829510b6
p1128
sV10000000148938
p1129
V63bc2e9a-aa2b-44f8-81b5-ef8eceb64295
p1130
sV10000000133192
p1131
V505ad498-f72b-4fa2-ac9a-d1ab32c4696f
p1132
sV10000000133193
p1133
V8c865c99-6912-41b6-ab38-27db14a8262f
p1134
sV10000000133190
p1135
Ve1658282-506c-4e69-a547-b0160f11fc31
p1136
sV10000000148939
p1137
Vdf02de4d-d697-4985-9179-b6bbb932802a
p1138
sV10000000133196
p1139
V802ff6eb-c8fd-471f-ba63-e8d4c5dd9029
p1140
sV10000000133197
p1141
V85de3971-6e19-4d1c-be15-8833040c6a38
p1142
sV10000000133194
p1143
Vcb357306-4aa1-4421-9518-8f1e8fabc524
p1144
sV10000000133195
p1145
V988b20ac-a92f-4145-8c5d-30153c0e1e41
p1146
sV10000000133198
p1147
Vc0f21a27-6bea-495a-975c-87d20dcfb892
p1148
sV10000000133199
p1149
V7bb44e8a-cb75-4fb3-965a-8242b5960daf
p1150
sV65000002584
p1151
V1e2a1238-a39b-43d0-a657-af5f70552b55
p1152
sV65000002596
p1153
V44606a84-6509-4b29-86ac-e4849203f555
p1154
sV65000002597
p1155
V8f8179ee-dfa3-43c5-8051-811d5bf30a45
p1156
sV65000002594
p1157
V4c2b623b-e7c9-4f50-881a-dcb36ac14c09
p1158
sV65000002592
p1159
Vf1e1c3bc-f751-4785-bd25-f591e3c856b4
p1160
sV65000002593
p1161
V188a2c75-b7ab-4468-96c8-152557e085d6
p1162
sV65000002590
p1163
V13600a7f-13c5-483f-9e6b-64e6bed95a3d
p1164
sV65000002591
p1165
V314cf405-db8e-42e8-8443-0ec7d866f32a
p1166
sV10000000148969
p1167
V3b6add61-1c06-44c8-9ba0-0524f018bcd8
p1168
sV10000000132350
p1169
Ve997cb5e-63ce-425a-9136-af506d358a53
p1170
sV65000002598
p1171
Vf3421a00-e00a-462a-a49a-2b350d865a4d
p1172
sV10000000151706
p1173
Vbf1c352a-ef25-476a-9432-66ead843d6c2
p1174
sV10000000151691
p1175
Vf59ce782-b2a2-4112-bb6f-eeb4274dd4f6
p1176
sV10000000133169
p1177
V345304d9-4918-4e9c-8f93-aecd13a14641
p1178
sV10000000148933
p1179
V44e7c9b1-c4a8-4a8d-aeae-2e8042e23430
p1180
sV10000000133167
p1181
V8df3f97c-e579-4f12-a4e0-61db841c6d24
p1182
sV10000000133166
p1183
Vf5418f10-fb23-4c83-9caf-45ebe5546e17
p1184
sV10000000133165
p1185
V6df77caa-6b16-41b1-9292-3162d1533aa1
p1186
sV10000000133164
p1187
Vf868fc6d-b87f-43b7-b336-2128f708ccfc
p1188
sV10000000133163
p1189
V117bc098-7623-47b3-b23f-7f3dfd0c6b51
p1190
sV10000000133162
p1191
V84f9eace-907b-4c28-b0d2-fca8f73ec8d5
p1192
sV10000000133161
p1193
Vba1ec7aa-8e86-427c-a76b-ba121f2dde0d
p1194
sV10000000133160
p1195
Vba0823d1-bfe8-4c06-9507-38d1b5c93b0b
p1196
sV10000000133145
p1197
V51e963ed-abb9-4ac2-a79d-e6207e56382d
p1198
sV10000000151692
p1199
Vc9021ea5-fe9d-4a1a-bf6f-2dc32ff4a4a6
p1200
sV10000000133224
p1201
V0fda0bb0-a990-4dfa-a29f-c7a27843f446
p1202
sV10000000148936
p1203
V99bc3b9c-d411-4779-9349-d1462e6f1f75
p1204
sV10000000133220
p1205
Vc6dae884-d7ec-43b4-af3e-1125d4e2eb9b
p1206
sV10000000133221
p1207
Vcbca17e9-2654-42d0-958e-66ddb30f989a
p1208
sV65000002679
p1209
V3b55e172-274b-4648-8857-8e0bf63d205d
p1210
sV10000000133223
p1211
Vd9decb70-f960-4d49-b70f-fdadd00d3c2d
p1212
sV65000002638
p1213
V74665cc5-3839-46db-b525-8d280d0ece69
p1214
sV10000000151697
p1215
V8b240e82-1e0d-4583-a471-4040d9fe94fd
p1216
sV10000000148935
p1217
Vaf0ed04d-97d8-4fd0-941c-2b7b488cd2df
p1218
sV10000000151534
p1219
V88912a84-b555-4a59-884f-b5e974116723
p1220
sV10000000151535
p1221
V406ee9bd-4780-407e-aa7b-ba53ed0683ad
p1222
sV65000002688
p1223
Ve19f7bfc-375e-44e4-8c38-e981dba76fcf
p1224
sV65000002689
p1225
V8f743d0c-2535-47c5-b940-aeccefea765f
p1226
sV10000000151530
p1227
V7b7a5fa6-6368-4656-9247-82f3d8cf5947
p1228
sV10000000151531
p1229
V14fca95a-74ad-4fed-a77b-859fd2ed9fa4
p1230
sV10000000151532
p1231
Ve52d1655-039c-4192-a6e5-bd2e85eed332
p1232
sV10000000151533
p1233
Vcf4f706f-a28d-4d22-b040-3d6e703c6106
p1234
sV65000002682
p1235
Va90b3b56-c6c3-4665-9e80-59bb12c5c2a5
p1236
sV65000002683
p1237
Vbc135c38-6d7c-4a58-9d94-a7aea697b649
p1238
sV65000002680
p1239
V4bd23cb3-92eb-4f59-bfb0-90d6d204da28
p1240
sV65000002681
p1241
V75feecc7-1222-4370-88c1-fc0f4b9614c5
p1242
sV65000002686
p1243
V3bc0e84d-015b-4a97-b5bc-708cfb959469
p1244
sV65000002687
p1245
V10f83f88-685e-4804-bd84-c6795b03637f
p1246
sV65000002684
p1247
V2c250b1b-8f0d-434b-b436-8ccfaf6aa8e3
p1248
sV65000002685
p1249
V1a74e97d-9f1a-4842-bbe1-b4a128eb9397
p1250
sV65000002174
p1251
V902e8035-40a0-4591-8fd5-9dd324992fed
p1252
sV65000002175
p1253
Vea529d70-9dba-4e74-8851-cfbe0d48bf59
p1254
sV65000002176
p1255
V12899c02-2b02-48ad-9303-f345944c3a49
p1256
sV65000002177
p1257
V8087d1f2-6314-4456-8e39-6ba5cf4ea63d
p1258
sV65000002170
p1259
V6e373bf8-473b-48d9-ae7d-eb6ce2479a3b
p1260
sV65000002171
p1261
V6af0a961-28ed-412d-b0e6-6c0cb315bf67
p1262
sV65000002173
p1263
Vc17888ee-1346-4dcc-b6d9-176002652a90
p1264
sV65000002178
p1265
V394a0831-87eb-41ba-9e75-ef8e30dd8bc6
p1266
sV65000002738
p1267
V9a3f04ed-8703-44f1-9082-b73542f91e8d
p1268
sV10000000131756
p1269
V1f5c4f78-ba36-44f5-8fc6-e46654128e24
p1270
sV10000000131757
p1271
Vadf10bf0-d5f5-4913-8fac-a4e6bacc11ea
p1272
sV10000000131754
p1273
Vd53e5008-796a-433d-a1dd-727ee384df1f
p1274
sV10000000131755
p1275
V5cc57ecf-c48d-407f-8f0d-3e0fba8ce1da
p1276
sV10000000131752
p1277
V25833ae2-8571-4bbe-a22e-9f3917583012
p1278
sV10000000131753
p1279
Vcfde4b21-7e8f-476a-bffa-71848966e6ba
p1280
sV10000000131750
p1281
Vf7e51464-e74a-4bc1-b10a-4f2af7caeddd
p1282
sV10000000131751
p1283
V8dd5d92d-3279-4ed2-bf13-c31b370fb18c
p1284
sV65000002703
p1285
V20d53b69-b594-4eaf-b858-3595a5ead6b7
p1286
sV65000002702
p1287
V85d949e7-1764-4065-af33-a1a1edcd2f9c
p1288
sV65000002167
p1289
V178ce7db-edb2-4a88-a572-a3010eb804c2
p1290
sV65000002700
p1291
Vbe5ab6d2-efb2-44d5-8bf7-72536c337789
p1292
sV65000002707
p1293
Vaa3a3109-8868-4de4-aad7-b5912db09fbb
p1294
sV65000002706
p1295
Vcb56897f-4103-4b02-ae1a-f2dc19bf616a
p1296
sV65000002705
p1297
V245aaac4-f3ea-41c8-8f40-8f19abd92f20
p1298
sV65000002704
p1299
V705b7e90-0179-42be-affe-a9198d149f3e
p1300
sV10000000148473
p1301
V3a454312-8e4c-4594-a0c1-a1a14fd78e26
p1302
sV10000000148472
p1303
V222e70ae-ffeb-474d-a528-76362a0aef37
p1304
sV10000000148471
p1305
V4ab6519f-df24-40d0-aed7-1cf5c0ba52d5
p1306
sV10000000148470
p1307
Vb43763e8-9c87-4cc8-90dc-fe2886f5ac85
p1308
sV10000000132401
p1309
Vb232d20a-b4a0-4b8d-943f-2fb55923376f
p1310
sV10000000148907
p1311
Vefc2ac04-e936-42fb-a09d-ec2e06947537
p1312
sV10000000148906
p1313
Vf2000ac4-b86e-4106-885b-c65aa55383d8
p1314
sV10000000148909
p1315
V457ecd2a-3207-440b-ae4c-0d4992956206
p1316
sV10000000148908
p1317
V35cf6a17-1fd4-4f96-94fe-a496798f5ca9
p1318
sV10000000133222
p1319
V6bd58cee-4d94-4c79-aaf2-7b6d6f8f2ba1
p1320
sV10000000151668
p1321
V44f33cef-e2fb-4c5b-a931-524ac37136ac
p1322
sV10000000151669
p1323
V6a0405f7-c4c6-45e2-9380-7144f29b08b8
p1324
sV10000000151660
p1325
V108a8dbe-38b4-4c3b-b5fe-ef1fe373cead
p1326
sV10000000151661
p1327
V2b50b721-441c-4f61-8cbe-16843ef74cef
p1328
sV10000000151662
p1329
V1f5e3b40-1613-4e68-8436-71f2afa7ccfd
p1330
sV10000000151663
p1331
Vf0deb715-e00f-4e03-947a-5a8660eab80a
p1332
sV10000000151664
p1333
Vfc167be6-fdc5-4666-b714-d856af6ce5b7
p1334
sV10000000151665
p1335
Vd954a0b4-dadc-49df-9cb7-4c01109560e7
p1336
sV10000000151666
p1337
V369f02ef-69c9-4ad2-a46f-a01630a71d66
p1338
sV10000000151667
p1339
Vf96171fb-6b77-415e-aed0-2a4a8e2e5672
p1340
sV65000002601
p1341
V2bc0ff2b-74fe-42eb-b6e3-dc4c4841bdc7
p1342
sV65000002273
p1343
Vd280c2ff-54f2-45d7-abed-22835a5e1e3b
p1344
sV65000002272
p1345
V7a96dd64-b9af-45c5-9c5e-a41515194cae
p1346
sV10000000128006
p1347
Vcffc6a6f-c351-4bc9-9fe6-2a5c3ae50cc4
p1348
sV10000000148976
p1349
Vcfb86e4a-92c3-4fda-97f2-cea4f9f752ac
p1350
sV10000000148977
p1351
V6c0d9943-586b-41e7-b28b-5460f50ca1df
p1352
sV10000000148974
p1353
V5e683f3f-76d8-4b93-aa30-c76a44636bfe
p1354
sV10000000148975
p1355
V8723e260-0569-4eed-9f53-89e55c6a4c3f
p1356
sV10000000151718
p1357
V0f69bde2-d81b-40ae-b071-5d3e6720498a
p1358
sV10000000151719
p1359
Vbc907752-47b5-4544-a6bd-0c380d4fc160
p1360
sV10000000148970
p1361
V1440f5cc-9efc-4502-8853-d7f8e1d97277
p1362
sV10000000148971
p1363
V161a94bc-c243-43f8-92fd-9f841c1970a1
p1364
sV10000000151714
p1365
V0d435b68-e4f6-4f8f-811a-fa043370eed3
p1366
sV10000000151715
p1367
Va7e5dfa0-fe63-4d8b-a39d-c927e5ff2372
p1368
sV10000000151716
p1369
Vfe92024b-2f93-426a-91fe-abfe0c1dd9cc
p1370
sV10000000151717
p1371
Vbd092c20-9b09-443c-a8ae-3ff8a6f99eed
p1372
sV10000000151710
p1373
Vb4cc3d2b-1577-4c17-ac29-e5d2e3e664d5
p1374
sV10000000151711
p1375
Vc1f43f17-0033-4f50-99fb-1c4fe0d5325b
p1376
sV10000000148978
p1377
Ve7eecc3e-bdf6-49e3-8ea9-b3728551e7b0
p1378
sV10000000151713
p1379
Vc951f89a-f381-4252-8ff0-00933cf834e2
p1380
sV10000000133156
p1381
Vff450b3f-79ad-4ade-b7a7-be1985fd2eb6
p1382
sV10000000133157
p1383
Vdb98b55b-b024-429c-9ecf-3d56443d13a9
p1384
sV10000000133154
p1385
Vdacb80a6-be65-4feb-a308-f7c67f1049c0
p1386
sV65000002609
p1387
Vaaac2b56-ec5d-447f-93d7-7874b4018545
p1388
sV10000000133152
p1389
Vbec590e6-87c9-4c05-aa4d-8510b75af05f
p1390
sV10000000133153
p1391
V99600a2f-8f09-4b3e-9792-c351c916bfc6
p1392
sV10000000133150
p1393
V4cd386c1-17ae-418c-a435-fc1e924950bf
p1394
sV10000000133151
p1395
V0ff8d1bd-d57a-4f59-adac-dd82454bfa0b
p1396
sV10000000133158
p1397
Vc49fbbb0-7ed9-47c6-94c6-f702a486e313
p1398
sV10000000133159
p1399
Vee5794db-dad7-4fb6-ae6e-dce80346db75
p1400
sV10000000128009
p1401
Vc8fe612c-91c6-40a6-8ef2-a96441179f82
p1402
sV65000002255
p1403
Vb4f11a3f-d30f-4f35-be36-5b6b0d1364e7
p1404
sV65000002254
p1405
V0e4fbe81-5197-488c-a9f4-f314d1bb43a0
p1406
sV65000002257
p1407
V71d482c8-6f7b-40f2-ae1c-972e02c35331
p1408
sV65000002256
p1409
V2078f100-d824-4da3-9eae-34460775dfe2
p1410
sV65000002251
p1411
V4b62d8c6-bbf4-410f-aa61-1aa89fb5587b
p1412
sV65000002250
p1413
Vd39aff41-b3f4-4275-9532-e3da134eef35
p1414
sV65000002252
p1415
V7b309e39-adbb-49ca-be3c-81707dc3a589
p1416
sV65000002259
p1417
V5c859175-e5b0-4445-8f5c-0f99c18d0e3d
p1418
sV65000002258
p1419
V873abc43-74fd-4a89-ac83-8de981788fc0
p1420
sV10000000151576
p1421
V2b63b529-0a98-4033-8934-4e30eb2a5a91
p1422
sV10000000132476
p1423
Vd49e384f-2a29-4088-b976-a2f65d977f83
p1424
sV10000000132477
p1425
V9835c54a-1fbb-47ba-88af-85d873e18885
p1426
sV65000002649
p1427
V212905ad-5588-468b-a8e4-bdbacf74d066
p1428
sV10000000132478
p1429
V1e3c94d6-dc70-4694-a920-37daa18e3eff
p1430
sV10000000132479
p1431
Ve23ca1ff-73a4-4c7b-b672-e780b2c967a2
p1432
sV10000000151577
p1433
V01db495b-73bf-4f66-9c30-d1afe92aed9f
p1434
sV65000002747
p1435
V812bffe1-71d9-4d3e-bf1d-33b85b154af7
p1436
sV65000002746
p1437
V1cf1f277-afb3-43d3-8a69-e69e5ae4f7b2
p1438
sV65000002745
p1439
V4ac8b0ee-b2fd-48d4-b1ac-b5a652d4aef0
p1440
sV65000002744
p1441
V7a7da4a8-8f65-44d1-bfed-5ea1a296d19d
p1442
sV65000002743
p1443
V20927425-1523-445b-a105-8371309cf5b8
p1444
sV10000000151597
p1445
V957f4898-69bd-4bb3-b621-f7654d82618d
p1446
sV10000000151594
p1447
V6cdb1f41-cc8d-4fc4-947c-a6edba1c3773
p1448
sV10000000151595
p1449
V8569242e-e064-4591-a958-0c88b3a902a2
p1450
sV65000002620
p1451
Vffa89512-5b02-44bc-83e3-37a091b921f5
p1452
sV65000002621
p1453
V8b32901c-8e97-4cd5-97cc-6eed5d70d77e
p1454
sV10000000151598
p1455
V04b4c57c-032f-417e-8c5d-fc3610cc005e
p1456
sV10000000151599
p1457
Vf60332b8-6f90-4f6d-827c-afdb81a11b5b
p1458
sV65000002624
p1459
Ve7d9de8c-ecd6-47c8-8878-6681e1ec6542
p1460
sV65000002625
p1461
V61fae2db-ceda-4a7f-a394-7fbe72702241
p1462
sV65000002626
p1463
Vb6d5a525-16ac-4bff-aa3b-8ac8074f0bd0
p1464
sV65000002748
p1465
V32f640f7-c03f-4016-8703-24a907d3ab62
p1466
sV65000002646
p1467
Vf2cbc821-9886-444e-9b41-0429ca3aa0e2
p1468
sV10000000148967
p1469
V241ad001-7d00-48d0-9493-6fef610988a2
p1470
sV10000000151744
p1471
Vbfc8b1e1-2980-4ef0-9686-78e9d0798b06
p1472
sV10000000151743
p1473
V6f762095-2e37-4f67-aabd-64f5d5fdd05e
p1474
sV10000000151742
p1475
Vaf4f2b67-cc8e-4e03-9750-3f35342a596a
p1476
sV10000000151741
p1477
Va14f0dfd-2e4d-499f-aa5a-cf0295c1dc84
p1478
sV10000000151740
p1479
V0ff4f51d-2861-4c87-bfef-8cf0c9fc7f3d
p1480
sV10000000148934
p1481
Veacc9893-6846-46f5-8aaf-6ea340eeb0ab
p1482
sV10000000151699
p1483
Ve738e5a3-7f39-4eca-bf04-6edf8f593e86
p1484
sV10000000151698
p1485
Ve991c476-43b9-4452-b249-e1e1d4c72fbc
p1486
sV10000000132355
p1487
V9a5268b1-9234-4eb4-a74f-440dc75c323f
p1488
sV10000000132354
p1489
Vdb698762-3f98-49d2-8ba6-a4b6462678c4
p1490
sV10000000132353
p1491
Vf9413c64-9bc4-4908-8879-32872ba00607
p1492
sV10000000132352
p1493
Vdb1db5a6-4f36-4a66-b699-ae22fde45a1f
p1494
sV10000000132351
p1495
Vaef76453-c6d9-4d07-bd52-bdecfe9536a6
p1496
sV65000002694
p1497
Vdaefe595-e810-4b61-8e7f-10c508e5a639
p1498
sV10000000148932
p1499
Vb7760766-a533-47da-9ae1-42bd94951f3d
p1500
sV10000000151690
p1501
V07b31964-c0e3-4440-a405-f9848fa51f7c
p1502
sV10000000148930
p1503
Vb9d7e6f3-f9f8-44f9-8d8b-9310ae434d47
p1504
sV10000000148931
p1505
V6ab3930e-8d54-4ea8-a19e-0a8640a23a66
p1506
sV10000000151695
p1507
Va2fa015d-aa7f-4679-a249-f388afbcdd9a
p1508
sV10000000148937
p1509
V3a3909c9-f902-467c-a6ce-ee798915f0a5
p1510
sV10000000132359
p1511
V525304e1-574b-43de-8bad-4f3ccc9cbca5
p1512
sV10000000151696
p1513
V6dc11746-d248-4013-a203-bd4953de7c4a
p1514
sV65000002164
p1515
V6c12f4e0-3ce8-45a8-a417-6814dbe0c537
p1516
sV65000002691
p1517
Vd06392e6-4790-447b-a92c-48cfe74e6460
p1518
sV65000002198
p1519
V59b74fdd-68c3-47a5-8225-9744708fe74f
p1520
sV65000002692
p1521
V85ebcbf8-c081-4cd2-b9c8-e424e882ed9d
p1522
sV65000002211
p1523
Ve8736f2e-bd7d-40b8-a707-d602117bd5c5
p1524
sV65000002210
p1525
Ve8deb8d3-25fd-42b2-bd05-cbaf50921498
p1526
sV65000002213
p1527
Vd6f445d4-ee62-4b52-8007-62527cfc5461
p1528
sV65000002212
p1529
V3c1d6f02-7015-41ed-93a7-bb7bcc414eed
p1530
sV65000002215
p1531
V9ecf33b4-2936-4453-bf82-f5ee62a100a7
p1532
sV65000002217
p1533
V799abf2b-9c73-42b8-a007-d6269d2d0298
p1534
sV65000002216
p1535
V52fb018f-703b-4c18-b501-28880b58269f
p1536
sV65000002219
p1537
V340f11d5-b057-41e2-adb8-3f51c8756caa
p1538
sV65000002218
p1539
V69ec51cc-9f85-4bc5-971c-de6974535dc5
p1540
sV10000000151624
p1541
Vdf4aff0a-efea-44d4-9656-7c41f33b1b44
p1542
sV10000000151625
p1543
Ve55b6310-7624-458e-9647-9787b7a856fa
p1544
sV10000000151620
p1545
Vb7817ab9-a9fa-4214-9490-fc3ca23e0ba4
p1546
sV10000000151621
p1547
V2b7261b2-4a35-4c3e-bb2c-446a7c6563e0
p1548
sV10000000151622
p1549
V6ebad612-ab1c-442a-a73b-708458251eab
p1550
sV10000000151623
p1551
Vb51200a2-d585-4d1a-9b92-ff42dc5fef3b
p1552
ss.