(dp0
S'case_user_dict'
p1
(dp2
Vcbba320a-619e-4169-a267-e5108e9d5860
p3
V2523fc995ccfd1d27c15111ec8987be6
p4
sV04bd372b-fc38-4f50-92ce-87b6962235ba
p5
V2523fc995ccfd1d27c15111ec8987be6
p6
sVee03f94a-cd38-485f-a3a4-18176c7bcb6c
p7
V2523fc995ccfd1d27c15111ec8987be6
p8
sVd4a42a3e-c955-4640-bcb4-44ca5f855d52
p9
V2523fc995ccfd1d27c15111ec8987be6
p10
sVe6bb058e-e194-4815-9cbc-7e8fefb16136
p11
V2523fc995ccfd1d27c15111ec8987be6
p12
sV3a02e557-b8d8-4436-b842-3067edf26fa5
p13
V2523fc995ccfd1d27c15111ec8987be6
p14
sV8c55d7b7-79e7-4424-b76b-0abbee652fab
p15
V2523fc995ccfd1d27c15111ec8987be6
p16
sV821e3b97-8501-4cca-8018-cfaa5fa43811
p17
V2523fc995ccfd1d27c15111ec8987be6
p18
sV91a0fed2-678d-4077-a8f2-c5a2bfe81c86
p19
V2523fc995ccfd1d27c15111ec8987be6
p20
sV54dba461-cb71-4c7f-86c4-aa4423ea8dc1
p21
V2523fc995ccfd1d27c15111ec8987be6
p22
sVd4094d8a-2275-4d1b-b61d-76e31b9a2a37
p23
V2523fc995ccfd1d27c15111ec8987be6
p24
sV051f7b41-7e02-4a3a-8219-1b86934c9c9c
p25
V2523fc995ccfd1d27c15111ec8987be6
p26
sV3e38bfe0-55af-4700-8051-f7af0155e43d
p27
V2523fc995ccfd1d27c15111ec8987be6
p28
sVf1707292-4207-467e-aa5b-5027baf1e8d2
p29
V2523fc995ccfd1d27c15111ec8987be6
p30
sV38f8855a-33a1-4884-9b5a-528e14d0e092
p31
V2523fc995ccfd1d27c15111ec8987be6
p32
sV2a39c43b-a9bf-41d4-9439-7b0e2fd93c4d
p33
V2523fc995ccfd1d27c15111ec8987be6
p34
sVcf3b5e27-fa1a-448d-a57c-8f418f722517
p35
V2523fc995ccfd1d27c15111ec8987be6
p36
sV9c812b98-1c71-41ae-90ca-252c5c9ba466
p37
V2523fc995ccfd1d27c15111ec8987be6
p38
sV3a0022fc-e61d-46f1-9f40-dc7efd4b0d57
p39
V2523fc995ccfd1d27c15111ec8987be6
p40
sVd099f727-2adc-48a4-a2d7-51c180aeb7e6
p41
V2523fc995ccfd1d27c15111ec8987be6
p42
sV7b083ee4-211a-47ee-b8cd-f366ce07035d
p43
V2523fc995ccfd1d27c15111ec8987be6
p44
sV34ea3094-ca22-473e-bc07-6eb4763b57c8
p45
V2523fc995ccfd1d27c15111ec8987be6
p46
sVd3309538-8362-4efa-be6d-128aee4ec540
p47
V2523fc995ccfd1d27c15111ec8987be6
p48
sV8dc2778f-6ed2-4a15-a7eb-43c4266d1611
p49
V2523fc995ccfd1d27c15111ec8987be6
p50
sV778939fb-159b-4a6e-8a3c-015061c0cc9d
p51
V2523fc995ccfd1d27c15111ec8987be6
p52
sVeb0554b8-0262-4db3-914a-34260c295390
p53
V2523fc995ccfd1d27c15111ec8987be6
p54
sV278253aa-63c8-4f7a-b83b-349efc853bef
p55
V2523fc995ccfd1d27c15111ec8987be6
p56
sV478df6c3-9385-4a8c-8cbf-705f8c56ab36
p57
V2523fc995ccfd1d27c15111ec8987be6
p58
sVe337766a-d2e6-4f2d-89d4-fd97099add4b
p59
V2523fc995ccfd1d27c15111ec8987be6
p60
sVd249b38e-e8f8-4611-802a-5253c4575e49
p61
V2523fc995ccfd1d27c15111ec8987be6
p62
sV82183386-42eb-4f8c-a0d4-66821e613579
p63
V2523fc995ccfd1d27c15111ec8987be6
p64
sV67c647f5-0c87-4c23-856d-bc7ad83dfd07
p65
V2523fc995ccfd1d27c15111ec8987be6
p66
sV41813544-5313-469a-9701-a9a7338aef85
p67
V2523fc995ccfd1d27c15111ec8987be6
p68
sV27250873-af26-4897-b5e2-3950db6b6445
p69
V2523fc995ccfd1d27c15111ec8987be6
p70
sVeaa562f2-c549-435a-8e13-f1d51e977e14
p71
V2523fc995ccfd1d27c15111ec8987be6
p72
sVbe19c87e-f443-4929-adb8-a9e1cb36281e
p73
V2523fc995ccfd1d27c15111ec8987be6
p74
sV3b274fd3-f18f-4da9-b2e9-f988502b02ca
p75
V2523fc995ccfd1d27c15111ec8987be6
p76
sV4d349493-a910-4fa9-b673-844102a3b27f
p77
V2523fc995ccfd1d27c15111ec8987be6
p78
sVa6b1ce64-ec9e-4a61-a33a-0961e106c4a0
p79
V2523fc995ccfd1d27c15111ec8987be6
p80
sVf46a3a71-5ada-4a93-9ffc-0fac37e31bff
p81
V2523fc995ccfd1d27c15111ec8987be6
p82
sV140e5fbd-f165-4fad-bd12-783f4432473a
p83
V2523fc995ccfd1d27c15111ec8987be6
p84
sVb1b69829-b4a6-4638-b701-fe6510ce7c6d
p85
V2523fc995ccfd1d27c15111ec8987be6
p86
sV65c55868-0db5-4056-a0e1-eea8b20d01f2
p87
V2523fc995ccfd1d27c15111ec8987be6
p88
sVbaba6f02-2783-40df-8163-4b523f34a2f2
p89
V2523fc995ccfd1d27c15111ec8987be6
p90
sV35868bb0-c28e-4913-9761-af26081cf6de
p91
V2523fc995ccfd1d27c15111ec8987be6
p92
sVb117d5d1-ec34-4ede-8b24-ea3cec36e306
p93
V2523fc995ccfd1d27c15111ec8987be6
p94
sVea762ea8-ecd5-4c34-ac00-abd219f18e27
p95
V2523fc995ccfd1d27c15111ec8987be6
p96
sV5fd3219e-6f1d-4299-9004-a6c5cfe40a75
p97
V2523fc995ccfd1d27c15111ec8987be6
p98
sV23122059-8135-4f47-a898-896f4116ad42
p99
V2523fc995ccfd1d27c15111ec8987be6
p100
sV876f6ed7-dfb3-4ea7-a24c-8343a7d30e7a
p101
V2523fc995ccfd1d27c15111ec8987be6
p102
sV129c999f-47b2-47cf-bbbe-a3aac0be7389
p103
V2523fc995ccfd1d27c15111ec8987be6
p104
sV0e9bb23a-0260-4b2e-b9a4-9ac4522a2827
p105
V2523fc995ccfd1d27c15111ec8987be6
p106
sVa78b58be-2c26-4199-a8d4-1acfb058bfc3
p107
V2523fc995ccfd1d27c15111ec8987be6
p108
sV1ee9987b-2a06-4004-8c09-e99cf2a7a408
p109
V2523fc995ccfd1d27c15111ec8987be6
p110
sVbf389117-b3d2-422f-a1f1-fe8580e6a85f
p111
V2523fc995ccfd1d27c15111ec8987be6
p112
sVb3903b3e-2db1-4a3d-9c15-0c7e93cbf11c
p113
V2523fc995ccfd1d27c15111ec8987be6
p114
sVec68f422-6812-48b4-be4b-4535232d0209
p115
V2523fc995ccfd1d27c15111ec8987be6
p116
sV7d669317-63d7-4a59-ad04-9e409942eb53
p117
V2523fc995ccfd1d27c15111ec8987be6
p118
sV8d8e2554-4048-4cdb-9b34-fa079199432d
p119
V2523fc995ccfd1d27c15111ec8987be6
p120
sV8e8af9b8-d294-44c9-84fe-8b886d4c90cd
p121
V2523fc995ccfd1d27c15111ec8987be6
p122
sVaceb60c6-aead-4218-8afd-2e86a8865786
p123
V2523fc995ccfd1d27c15111ec8987be6
p124
sVbd7d4482-d343-44c7-b5e5-eacf9af97051
p125
V2523fc995ccfd1d27c15111ec8987be6
p126
sVf55601e2-7fc7-49e9-bb40-2c0d6817e85a
p127
V2523fc995ccfd1d27c15111ec8987be6
p128
sV73fbf381-4376-4dc4-ac43-5d52843f2b5c
p129
V2523fc995ccfd1d27c15111ec8987be6
p130
sVb54a0cfa-00b5-4271-8315-18c583c52faa
p131
V2523fc995ccfd1d27c15111ec8987be6
p132
sVbc75c732-f2d7-4875-8b41-2d940bea13ca
p133
V2523fc995ccfd1d27c15111ec8987be6
p134
sV9ab5b66c-f37e-4ac9-bf5b-78e7db5f6817
p135
V2523fc995ccfd1d27c15111ec8987be6
p136
sV56f1acde-e0f7-4e03-859f-711bd4da4b54
p137
V2523fc995ccfd1d27c15111ec8987be6
p138
sVa9b188fe-c151-4f57-994c-5b729ef59a17
p139
V2523fc995ccfd1d27c15111ec8987be6
p140
sV83716ae9-c6d9-4130-b630-f051ff23c5ca
p141
V2523fc995ccfd1d27c15111ec8987be6
p142
sV194ed6d8-b38d-4565-8e46-68585a73a6ba
p143
V2523fc995ccfd1d27c15111ec8987be6
p144
sV813ab57a-84f8-4a79-955f-467ef26e38f5
p145
V2523fc995ccfd1d27c15111ec8987be6
p146
sV1f177349-f119-4dcb-b936-4b37f3b58d8d
p147
V2523fc995ccfd1d27c15111ec8987be6
p148
sV73c7ffa3-5caa-4ec6-926b-d1248f33ee46
p149
V2523fc995ccfd1d27c15111ec8987be6
p150
sVaa7c4d59-3f24-418c-a8de-598ad45e1d6d
p151
V2523fc995ccfd1d27c15111ec8987be6
p152
sVbaf4eb55-b2a7-412d-9517-082cb3717848
p153
V2523fc995ccfd1d27c15111ec8987be6
p154
sV7093764c-6d56-4ee3-89ac-c033a8ae8d87
p155
V2523fc995ccfd1d27c15111ec8987be6
p156
sVd308ec22-196f-4697-a3fc-318d50f97b65
p157
V2523fc995ccfd1d27c15111ec8987be6
p158
sVd616c7df-e3a6-41e3-9665-b7811634b2b1
p159
V2523fc995ccfd1d27c15111ec8987be6
p160
sV71a1e33e-407a-4f7b-a7c3-d6fa0d933bab
p161
V2523fc995ccfd1d27c15111ec8987be6
p162
sV8e294e0c-94e3-48d1-b577-0507d9198e02
p163
V2523fc995ccfd1d27c15111ec8987be6
p164
sV69ee07d2-86b5-4584-86d7-67ce5265673d
p165
V2523fc995ccfd1d27c15111ec8987be6
p166
sV14a30b41-c410-4c19-974e-e118d5aac8e8
p167
V2523fc995ccfd1d27c15111ec8987be6
p168
sV2831c646-95f3-4848-ae16-2474f419ea4c
p169
V2523fc995ccfd1d27c15111ec8987be6
p170
sV65e12e9d-c00b-4320-95ef-ede476466acf
p171
V2523fc995ccfd1d27c15111ec8987be6
p172
sV649309c7-fed3-4d8e-8373-14d72635765c
p173
V2523fc995ccfd1d27c15111ec8987be6
p174
sV43b28bda-c8c6-4a4f-aaeb-e91354f9e064
p175
V2523fc995ccfd1d27c15111ec8987be6
p176
sVa8977a94-af4b-4dae-86ab-62cf51e1acc6
p177
V2523fc995ccfd1d27c15111ec8987be6
p178
sVdbf52aa3-8136-4f52-bbbc-9f137a617e50
p179
V2523fc995ccfd1d27c15111ec8987be6
p180
sV99c84cfd-830d-4ab2-a378-b416a19d0ffe
p181
V2523fc995ccfd1d27c15111ec8987be6
p182
sV1c84b5d3-72d3-4ad0-a9df-a7b2a1984e96
p183
V2523fc995ccfd1d27c15111ec8987be6
p184
sVe5c91a5f-fd60-416d-83bc-dd974de681cd
p185
V2523fc995ccfd1d27c15111ec8987be6
p186
sV1d1aff66-2b54-46ef-b201-d0bc0e3b4eaf
p187
V2523fc995ccfd1d27c15111ec8987be6
p188
sV1baf0b1d-bed9-495f-b195-21a72e2aceb9
p189
V2523fc995ccfd1d27c15111ec8987be6
p190
sV4970d5f8-3294-499a-adfd-5b0ab45c618e
p191
V2523fc995ccfd1d27c15111ec8987be6
p192
sVdd147162-f333-4e82-ac3b-063bf1e8003e
p193
V2523fc995ccfd1d27c15111ec8987be6
p194
sVd5531dba-51dd-4e17-bcb2-a465715c71ef
p195
V2523fc995ccfd1d27c15111ec8987be6
p196
sVb18ea45d-1790-4312-87b5-cdc11dcc21d1
p197
V2523fc995ccfd1d27c15111ec8987be6
p198
sV536d2b8f-cc25-4d8e-a86e-e09db0a3185a
p199
V2523fc995ccfd1d27c15111ec8987be6
p200
sVccd2174f-c53c-49fd-a4be-49ec60b5b23e
p201
V2523fc995ccfd1d27c15111ec8987be6
p202
sVe3d28268-5312-42bf-91c7-790df2fd04b3
p203
V2523fc995ccfd1d27c15111ec8987be6
p204
sV12f628af-92ee-454e-afbc-b84448a9c46e
p205
V2523fc995ccfd1d27c15111ec8987be6
p206
sVb828bf0b-9c84-427e-9a6d-74891087a156
p207
V2523fc995ccfd1d27c15111ec8987be6
p208
sV9455f515-2182-4ed7-98c7-f3bf387e93d3
p209
V2523fc995ccfd1d27c15111ec8987be6
p210
sV3a6c931c-8dce-49a2-9574-f2295240eb6a
p211
V2523fc995ccfd1d27c15111ec8987be6
p212
sV097a6b30-7140-4f43-bea5-e67e3396f018
p213
V2523fc995ccfd1d27c15111ec8987be6
p214
sV1cfc2a18-5003-4e35-b43a-a07fc960ef96
p215
V2523fc995ccfd1d27c15111ec8987be6
p216
sV73659a8f-759a-4743-b991-b03e5a20db36
p217
V2523fc995ccfd1d27c15111ec8987be6
p218
sVbafc3c1a-bd22-41c1-8ee7-d55c9b527cd8
p219
V2523fc995ccfd1d27c15111ec8987be6
p220
sV80d6df88-ee8b-4ef8-a6fe-715e96bfcb54
p221
V2523fc995ccfd1d27c15111ec8987be6
p222
sVcf22af60-6480-4543-8ee0-87f93296b76d
p223
V2523fc995ccfd1d27c15111ec8987be6
p224
sVb3c76195-71d1-4ce6-b0fc-aaa71b8a1964
p225
V2523fc995ccfd1d27c15111ec8987be6
p226
sVd7b1b24f-9ee5-4c1d-a3ac-7f7084d7d3fc
p227
V2523fc995ccfd1d27c15111ec8987be6
p228
sVd982c521-a1c4-4a56-a0ae-6fbcadeabb27
p229
V2523fc995ccfd1d27c15111ec8987be6
p230
sVcb0d0108-3862-4e44-ad12-4b35ef4e58f4
p231
V2523fc995ccfd1d27c15111ec8987be6
p232
sV00e1038e-8e78-48a3-bc52-bd92f3332d78
p233
V2523fc995ccfd1d27c15111ec8987be6
p234
sV3074c0b2-5d9e-4cfa-b437-7d698029f384
p235
V2523fc995ccfd1d27c15111ec8987be6
p236
sV420af9f0-10f6-4bb7-bcc4-1a7b0299783b
p237
V2523fc995ccfd1d27c15111ec8987be6
p238
sVafbe8105-f00a-4840-b702-ac13e1a0b36b
p239
V2523fc995ccfd1d27c15111ec8987be6
p240
sVeea9b0ba-b8c4-4e45-bd1e-668ba4bb8a20
p241
V2523fc995ccfd1d27c15111ec8987be6
p242
sVe7492d05-f4a1-4e6a-85d1-b26b1f5c5a57
p243
V2523fc995ccfd1d27c15111ec8987be6
p244
sV0b6e6dea-0234-4d87-bbb8-78a72bccbe7e
p245
V2523fc995ccfd1d27c15111ec8987be6
p246
sV0d0c8a89-fc02-4729-be65-39eeeb201106
p247
V2523fc995ccfd1d27c15111ec8987be6
p248
sVc0e6c41c-00c8-4d7b-bba9-9a5ada80049c
p249
V2523fc995ccfd1d27c15111ec8987be6
p250
sV50ac8e54-c887-4ae9-ad20-cf00485b2047
p251
V2523fc995ccfd1d27c15111ec8987be6
p252
sVd21cb39f-388d-43e5-ba0e-2939f4cec494
p253
V2523fc995ccfd1d27c15111ec8987be6
p254
sV81a8fec7-1bea-4f90-a13b-d2529fcabc30
p255
V2523fc995ccfd1d27c15111ec8987be6
p256
sV457281a1-fe23-4571-a62a-3bc5984aa381
p257
V2523fc995ccfd1d27c15111ec8987be6
p258
sV036eaff5-7536-4bc3-98ce-bbd744d29244
p259
V2523fc995ccfd1d27c15111ec8987be6
p260
sV2d7ac09b-7f92-4064-a788-51d21f23d7a8
p261
V2523fc995ccfd1d27c15111ec8987be6
p262
sV1bce77cc-88ed-46ba-8ea6-7ae8b8e4890a
p263
V2523fc995ccfd1d27c15111ec8987be6
p264
sVa8e730ba-d74a-43ff-aeb0-a464449c9c22
p265
V2523fc995ccfd1d27c15111ec8987be6
p266
sV195685ff-6a06-4e14-a48a-ff5265e06f19
p267
V2523fc995ccfd1d27c15111ec8987be6
p268
sV924f3238-c23f-4ae0-b648-a82f5a65a8aa
p269
V2523fc995ccfd1d27c15111ec8987be6
p270
sVf6f635eb-d361-4445-8804-d9e3865b134b
p271
V2523fc995ccfd1d27c15111ec8987be6
p272
sVa0dff9b7-bcc2-4443-ae9e-2a2e0b8ba704
p273
V2523fc995ccfd1d27c15111ec8987be6
p274
sV54798f7a-4b53-45c5-9cc4-e7cf336ca728
p275
V2523fc995ccfd1d27c15111ec8987be6
p276
sVea1185f5-3259-4341-8835-a89fa6a886b6
p277
V2523fc995ccfd1d27c15111ec8987be6
p278
sV733f666c-4270-49b0-bf5c-e25c5492e148
p279
V2523fc995ccfd1d27c15111ec8987be6
p280
sVa79ab8e5-ee97-437b-a731-b0f8caadf2a9
p281
V2523fc995ccfd1d27c15111ec8987be6
p282
sV1ab0002e-1a8f-4de3-b325-353ffeebf949
p283
V2523fc995ccfd1d27c15111ec8987be6
p284
sV550a0f3f-b98e-4ef1-8f28-98bcf2c062b4
p285
V2523fc995ccfd1d27c15111ec8987be6
p286
sV773bb096-53eb-4aa1-a070-9485f9f0f545
p287
V2523fc995ccfd1d27c15111ec8987be6
p288
sV0cbc7401-3a10-4ffd-863c-a2a9099256f5
p289
V2523fc995ccfd1d27c15111ec8987be6
p290
sV7d8672bf-d124-4c81-93e6-87b740b33187
p291
V2523fc995ccfd1d27c15111ec8987be6
p292
sV2a2ee4a0-0e70-45bd-8c2a-7fb7f73b4fd8
p293
V2523fc995ccfd1d27c15111ec8987be6
p294
sV23ff9639-062b-452a-8584-12201a94803f
p295
V2523fc995ccfd1d27c15111ec8987be6
p296
sV24ebf6e8-0328-46f1-9665-79482140df57
p297
V2523fc995ccfd1d27c15111ec8987be6
p298
sVa57fa205-6df7-4dee-be75-be3efcd0bc51
p299
V2523fc995ccfd1d27c15111ec8987be6
p300
sV5f29f493-4caf-4676-9b61-9e59af79e9e2
p301
V2523fc995ccfd1d27c15111ec8987be6
p302
sV2c33cb9b-4142-41d3-93a1-5b6be110be2d
p303
V2523fc995ccfd1d27c15111ec8987be6
p304
sVe5ad4525-1553-4625-855d-f6e58d6ab169
p305
V2523fc995ccfd1d27c15111ec8987be6
p306
sV754e979a-545f-43e1-b313-4389b8791404
p307
V2523fc995ccfd1d27c15111ec8987be6
p308
sV5e11062f-cf97-48b7-a9e3-5d14228d8862
p309
V2523fc995ccfd1d27c15111ec8987be6
p310
sVfd5f2a01-0947-44fd-bd4e-62d71a5e3848
p311
V2523fc995ccfd1d27c15111ec8987be6
p312
sV59216cc2-e282-497b-ac7a-51fd26c062b2
p313
V2523fc995ccfd1d27c15111ec8987be6
p314
sVba58efa4-2f53-4ab5-a56c-407dd63b9db9
p315
V2523fc995ccfd1d27c15111ec8987be6
p316
sVe9b82ed5-939d-4246-90b8-312173f5ef04
p317
V2523fc995ccfd1d27c15111ec8987be6
p318
sVc79bbebe-e702-43ad-ba3c-7a9dafe6feea
p319
V2523fc995ccfd1d27c15111ec8987be6
p320
sVf83f47f9-e8bc-4ef7-80f2-9b58b8d1f18f
p321
V2523fc995ccfd1d27c15111ec8987be6
p322
sV54663f35-0189-485a-b963-546a7e7c80b0
p323
V2523fc995ccfd1d27c15111ec8987be6
p324
sVbe55de54-97ed-4a49-bb84-145cdc0c9602
p325
V2523fc995ccfd1d27c15111ec8987be6
p326
sV347f76e1-a4ac-4269-87be-4fb0f94fa367
p327
V2523fc995ccfd1d27c15111ec8987be6
p328
sV30c9c879-79aa-4682-960e-8c01396043ea
p329
V2523fc995ccfd1d27c15111ec8987be6
p330
sV283463b8-a42c-4480-a506-1b52d29a7de8
p331
V2523fc995ccfd1d27c15111ec8987be6
p332
sV8be74c70-036d-428a-aa55-fbd7c102dfc9
p333
V2523fc995ccfd1d27c15111ec8987be6
p334
sV1ab64e59-9919-436b-9a0b-fd1919260992
p335
V2523fc995ccfd1d27c15111ec8987be6
p336
sVa902f4f1-9244-4be7-b71b-82e2310b9b58
p337
V2523fc995ccfd1d27c15111ec8987be6
p338
sVee697888-803d-4b34-8818-f0d9ce512b26
p339
V2523fc995ccfd1d27c15111ec8987be6
p340
sVa62b37fc-d662-4ae8-ab80-9f0736be4397
p341
V2523fc995ccfd1d27c15111ec8987be6
p342
sVf534d238-217c-49e2-9b2d-baf053451781
p343
V2523fc995ccfd1d27c15111ec8987be6
p344
sV47fab35f-343e-408f-bf2b-4b27a771e26d
p345
V2523fc995ccfd1d27c15111ec8987be6
p346
sVee22c6c4-3fb4-44a6-a39f-ed1d3924a0dc
p347
V2523fc995ccfd1d27c15111ec8987be6
p348
sV7f233e4d-a52e-48c8-978e-acd188da1464
p349
V2523fc995ccfd1d27c15111ec8987be6
p350
sV0544d40e-c04b-4e3f-9b53-1e05f9401344
p351
V2523fc995ccfd1d27c15111ec8987be6
p352
sV91df9399-a8a2-4c80-8df8-502d9081b2e2
p353
V2523fc995ccfd1d27c15111ec8987be6
p354
sV924371da-99b2-458c-b299-870727773780
p355
V2523fc995ccfd1d27c15111ec8987be6
p356
sV8be15721-c2f6-43a7-8a4c-5a56793242ea
p357
V2523fc995ccfd1d27c15111ec8987be6
p358
sVd2877c76-9af8-4107-af26-dde5f52d8b95
p359
V2523fc995ccfd1d27c15111ec8987be6
p360
sV21f9bfb5-e3f1-48b4-ab47-0aa9c3257d73
p361
V2523fc995ccfd1d27c15111ec8987be6
p362
sV51e2963d-c769-47c6-8b36-9897a39748c2
p363
V2523fc995ccfd1d27c15111ec8987be6
p364
sVa10e95bf-c337-4b18-b400-15be19e27f34
p365
V2523fc995ccfd1d27c15111ec8987be6
p366
sV03956f35-e58b-4257-8684-a1601fc4db44
p367
V2523fc995ccfd1d27c15111ec8987be6
p368
sV797d5c4b-0ea3-49a7-a761-d1e8045cd2c6
p369
V2523fc995ccfd1d27c15111ec8987be6
p370
sV09486062-27ff-43ef-8520-2c21d207405f
p371
V2523fc995ccfd1d27c15111ec8987be6
p372
sVa086063c-935d-4bc4-a10f-bcbda7dded0a
p373
V2523fc995ccfd1d27c15111ec8987be6
p374
sVeff04e8a-4b54-49d2-bdd9-f54eb7ef8f59
p375
V2523fc995ccfd1d27c15111ec8987be6
p376
sV2de78fa4-af73-442a-9bf9-09cba663f5bb
p377
V2523fc995ccfd1d27c15111ec8987be6
p378
sVffd59c5a-e10a-45e6-b8e5-a959fb9e9b76
p379
V2523fc995ccfd1d27c15111ec8987be6
p380
sVc42a97d8-5e4d-49d0-b8ad-cca395c572a7
p381
V2523fc995ccfd1d27c15111ec8987be6
p382
sVd590ca7f-b73c-47eb-b975-374e13caa1df
p383
V2523fc995ccfd1d27c15111ec8987be6
p384
sVfbdc9426-6ae4-4aaf-a9b3-04a308bcc815
p385
V2523fc995ccfd1d27c15111ec8987be6
p386
sVfbf5769b-798e-442e-8d74-2fba9b52d54c
p387
V2523fc995ccfd1d27c15111ec8987be6
p388
sVc806f3dd-8e32-4b91-90e3-3a0e50dea743
p389
V2523fc995ccfd1d27c15111ec8987be6
p390
sVba7de444-7b12-4521-af75-ac402d9b980e
p391
V2523fc995ccfd1d27c15111ec8987be6
p392
sV711ac4ef-fcc9-48d3-945a-02f222c71350
p393
V2523fc995ccfd1d27c15111ec8987be6
p394
sV9484a6d1-bf04-4981-8a01-5be667c24770
p395
V2523fc995ccfd1d27c15111ec8987be6
p396
sVcb6cdc9f-a7c8-4aa9-a740-dd910ca8c8be
p397
V2523fc995ccfd1d27c15111ec8987be6
p398
sV4db623fd-415b-4bb6-915d-19dd722afbee
p399
V2523fc995ccfd1d27c15111ec8987be6
p400
sV40227306-5b4f-44bb-aca7-c9b097ef542f
p401
V2523fc995ccfd1d27c15111ec8987be6
p402
sVa6a91657-eabf-4a0b-95bd-0819d4df1117
p403
V2523fc995ccfd1d27c15111ec8987be6
p404
sVd0e9d2c6-110d-4e57-892a-c276e4902c58
p405
V2523fc995ccfd1d27c15111ec8987be6
p406
sVaade9403-8035-41de-bb49-6ffc8450f073
p407
V2523fc995ccfd1d27c15111ec8987be6
p408
sV049de798-2606-4f40-a874-72052a5cf4b6
p409
V2523fc995ccfd1d27c15111ec8987be6
p410
sV17dc8bf3-0cde-4323-b30c-a5c8abab3e26
p411
V2523fc995ccfd1d27c15111ec8987be6
p412
sVff103474-7986-40e4-be1d-4d32c3a41482
p413
V2523fc995ccfd1d27c15111ec8987be6
p414
sV07fd791a-52f8-40cb-a053-1990aae32655
p415
V2523fc995ccfd1d27c15111ec8987be6
p416
sV4abe6064-4f3c-431e-82de-302fd374ed13
p417
V2523fc995ccfd1d27c15111ec8987be6
p418
sV74bbd0cc-0030-41f7-85bc-08e1b9085826
p419
V2523fc995ccfd1d27c15111ec8987be6
p420
sV5e7e8aa3-4285-4ca4-b845-c145d9f46b2c
p421
V2523fc995ccfd1d27c15111ec8987be6
p422
sV6702b7cc-75f4-40d4-aaa1-5dd897d88367
p423
V2523fc995ccfd1d27c15111ec8987be6
p424
sV90f2ff65-5341-4528-aa31-00f2d492ff6e
p425
V2523fc995ccfd1d27c15111ec8987be6
p426
sV9ab689e7-7da7-408d-a967-bce673652dbd
p427
V2523fc995ccfd1d27c15111ec8987be6
p428
sVc4dc5a57-134f-4fc6-8099-286d7d66aa50
p429
V2523fc995ccfd1d27c15111ec8987be6
p430
sV1a05fce5-bd91-488f-95ad-f3795253900b
p431
V2523fc995ccfd1d27c15111ec8987be6
p432
sV17964ad9-c3c8-42b3-8bce-14e64945948f
p433
V2523fc995ccfd1d27c15111ec8987be6
p434
sVd4b16e6e-b3be-4aba-b741-5f6589b61651
p435
V2523fc995ccfd1d27c15111ec8987be6
p436
sV7573d597-b34e-4b55-ab0f-22c38e428090
p437
V2523fc995ccfd1d27c15111ec8987be6
p438
sV18a7e8a7-1ee2-4b8f-b45a-322b87a393a3
p439
V2523fc995ccfd1d27c15111ec8987be6
p440
sV81eeda1d-2e70-4b97-ad65-efa6bcfa3fb4
p441
V2523fc995ccfd1d27c15111ec8987be6
p442
sV0da863d3-8774-44d9-8eef-1a6504d08304
p443
V2523fc995ccfd1d27c15111ec8987be6
p444
sV2f6a8c81-8cf9-4c7f-aefa-f09b8c572912
p445
V2523fc995ccfd1d27c15111ec8987be6
p446
sV6b1ed7d7-d557-4c02-9871-1ef45e704754
p447
V2523fc995ccfd1d27c15111ec8987be6
p448
sVb0d23622-53aa-430e-bd73-2658940ea663
p449
V2523fc995ccfd1d27c15111ec8987be6
p450
sVcc37b02d-6dbc-42be-ab73-909748689971
p451
V2523fc995ccfd1d27c15111ec8987be6
p452
sV473ad07d-4aa5-4b62-8413-cea16afb1e30
p453
V2523fc995ccfd1d27c15111ec8987be6
p454
sVd9a88398-d9e5-41e0-ba18-0ab841d01e10
p455
V2523fc995ccfd1d27c15111ec8987be6
p456
sV2f37a0d3-d160-4ab8-8eaf-9bf72e443c32
p457
V2523fc995ccfd1d27c15111ec8987be6
p458
sVf90c8d29-8504-49a1-8018-179ea4318fbc
p459
V2523fc995ccfd1d27c15111ec8987be6
p460
sV3f5eae62-de25-45d7-ac41-6592bdaf14dc
p461
V2523fc995ccfd1d27c15111ec8987be6
p462
sV39d48180-e2eb-4fa8-bfe8-46fd5e2d87dd
p463
V2523fc995ccfd1d27c15111ec8987be6
p464
sV91077662-7902-4e0a-b1ac-1e37e7b9de07
p465
V2523fc995ccfd1d27c15111ec8987be6
p466
sVf7d97cdc-76a6-4e09-9e31-173ec76fab34
p467
V2523fc995ccfd1d27c15111ec8987be6
p468
sV4c6f69e1-5b58-46d7-ba13-3eb00506927a
p469
V2523fc995ccfd1d27c15111ec8987be6
p470
sV87721c37-ea1e-460c-bbe0-90d9e6a0bffc
p471
V2523fc995ccfd1d27c15111ec8987be6
p472
sVbf4c4ef9-0c5e-4d7b-88f5-e6bd5b3e6a48
p473
V2523fc995ccfd1d27c15111ec8987be6
p474
sV69ba5238-9ae4-4e17-8df2-58410b3fa769
p475
V2523fc995ccfd1d27c15111ec8987be6
p476
sV56f9a4a1-d99a-4d1b-bdfc-4b08cb2b050f
p477
V2523fc995ccfd1d27c15111ec8987be6
p478
sV1dfc374f-6edb-4b2a-b2c8-819f4246de13
p479
V2523fc995ccfd1d27c15111ec8987be6
p480
sVb8e04d60-9bff-4642-bf69-f5da71b997d0
p481
V2523fc995ccfd1d27c15111ec8987be6
p482
sV81df9d78-3b46-42a0-90c4-84ec850d528a
p483
V2523fc995ccfd1d27c15111ec8987be6
p484
sV61d9c31b-d624-455a-b8cd-577e90dfd582
p485
V2523fc995ccfd1d27c15111ec8987be6
p486
sV005a608d-9812-4ed1-b6e2-b98136384cfa
p487
V2523fc995ccfd1d27c15111ec8987be6
p488
sVb30ff387-6146-4770-b30a-323c1d54f1da
p489
V2523fc995ccfd1d27c15111ec8987be6
p490
sVf5aea071-ba36-49ab-a532-0a394e9e7762
p491
V2523fc995ccfd1d27c15111ec8987be6
p492
sVecf7ada0-0b34-47f1-b1cb-7af1d311c6b9
p493
V2523fc995ccfd1d27c15111ec8987be6
p494
sV791e9e2d-0006-42da-a789-e1c079cf9cbe
p495
V2523fc995ccfd1d27c15111ec8987be6
p496
sV14607108-35f3-4fca-8ba6-83cbe33da936
p497
V2523fc995ccfd1d27c15111ec8987be6
p498
sVe78ad62b-25a8-4725-af3d-66e38f0a2a8b
p499
V2523fc995ccfd1d27c15111ec8987be6
p500
sV27bc8d01-9000-4f62-9570-6d9a7c85b45a
p501
V2523fc995ccfd1d27c15111ec8987be6
p502
sVd3afad01-068f-469f-867b-c74a76c3b218
p503
V2523fc995ccfd1d27c15111ec8987be6
p504
sV4266215f-0a95-4cc3-b79f-903a397faa91
p505
V2523fc995ccfd1d27c15111ec8987be6
p506
sV3b40f546-01d4-4818-b8e4-ca5d2abf71a6
p507
V2523fc995ccfd1d27c15111ec8987be6
p508
sV7c22ec09-65f4-4226-b553-52327b047889
p509
V2523fc995ccfd1d27c15111ec8987be6
p510
sV7d2e2f87-3f2a-46c0-8d3e-58e04d6cca5e
p511
V2523fc995ccfd1d27c15111ec8987be6
p512
sV459ee200-e7ad-4f54-8bef-551bd273ef21
p513
V2523fc995ccfd1d27c15111ec8987be6
p514
sVa66df2dd-243f-4786-9748-867e60507718
p515
V2523fc995ccfd1d27c15111ec8987be6
p516
sV8ca0a9b0-58cb-4064-bd80-e0a97bb1f11d
p517
V2523fc995ccfd1d27c15111ec8987be6
p518
sV3adc601b-393f-460b-b65e-ee4f293df553
p519
V2523fc995ccfd1d27c15111ec8987be6
p520
sVc66ebfd3-d177-42b3-9790-78278d9d04e0
p521
V2523fc995ccfd1d27c15111ec8987be6
p522
sV0c185f02-21aa-414b-a99e-dcdec86e0433
p523
V2523fc995ccfd1d27c15111ec8987be6
p524
sV62f4d0fa-5e91-4424-a515-dceae3162448
p525
V2523fc995ccfd1d27c15111ec8987be6
p526
sV5a37d671-1ca9-43d7-b7ca-ebd3e4814d16
p527
V2523fc995ccfd1d27c15111ec8987be6
p528
sV721882a5-c8a8-46a0-a940-bf3ddf5c83c0
p529
V2523fc995ccfd1d27c15111ec8987be6
p530
sVdd8c7295-a9e6-4122-ad5f-e30ed34d477a
p531
V2523fc995ccfd1d27c15111ec8987be6
p532
sVd402260b-ca1c-4dfc-bf51-3789ef909369
p533
V2523fc995ccfd1d27c15111ec8987be6
p534
sVe4898b9b-756b-4aee-b699-33f16e853229
p535
V2523fc995ccfd1d27c15111ec8987be6
p536
sV4471e14e-008c-48ca-b0b5-85b706264bb1
p537
V2523fc995ccfd1d27c15111ec8987be6
p538
sV1e36eb51-c2c4-4ddb-b231-b56c9d8895a6
p539
V2523fc995ccfd1d27c15111ec8987be6
p540
sVbcf76559-8c17-49cd-b85b-e129d408b98d
p541
V2523fc995ccfd1d27c15111ec8987be6
p542
sVf413f60a-bc30-4344-848e-5deb09690900
p543
V2523fc995ccfd1d27c15111ec8987be6
p544
sV3cf48410-827f-44fb-9133-272dcdc06dac
p545
V2523fc995ccfd1d27c15111ec8987be6
p546
sVfabefc35-f100-4b34-b932-9f1ab6ca9da8
p547
V2523fc995ccfd1d27c15111ec8987be6
p548
sVd93d2286-3087-4778-bf09-42fbe1fbda49
p549
V2523fc995ccfd1d27c15111ec8987be6
p550
sV29d91e02-2c8f-4b6c-b52b-8c0a417f21eb
p551
V2523fc995ccfd1d27c15111ec8987be6
p552
sV86b3d93c-6b19-46e9-87de-d31d62e21e07
p553
V2523fc995ccfd1d27c15111ec8987be6
p554
sV12ba4b47-b9c2-4cff-b4f4-0bb6ecaa6bac
p555
V2523fc995ccfd1d27c15111ec8987be6
p556
sV42b081da-cada-4f86-81db-fb769be3ac9b
p557
V2523fc995ccfd1d27c15111ec8987be6
p558
sVe14b83c0-08d0-44aa-a9de-fb43dfd62825
p559
V2523fc995ccfd1d27c15111ec8987be6
p560
sV2678f951-892a-4c81-b2a8-e3e48dca1939
p561
V2523fc995ccfd1d27c15111ec8987be6
p562
sV86fd0248-99cf-4feb-b425-289f7cb830bc
p563
V2523fc995ccfd1d27c15111ec8987be6
p564
sVc1db2a96-ebeb-40c7-b8c3-439dbd75d814
p565
V2523fc995ccfd1d27c15111ec8987be6
p566
sV8051ef3e-2b06-4aaf-9757-e0940e85551f
p567
V2523fc995ccfd1d27c15111ec8987be6
p568
sVc78d411c-ed02-4e22-ac02-97c38f697bab
p569
V2523fc995ccfd1d27c15111ec8987be6
p570
sVea97531b-71e1-48f3-aa56-32e3df298fc5
p571
V2523fc995ccfd1d27c15111ec8987be6
p572
sVc2bb2257-e8a3-4cbd-91c0-5b88cb69fa46
p573
V2523fc995ccfd1d27c15111ec8987be6
p574
sV1f62b593-6ace-4ed9-9225-f2fa426737c6
p575
V2523fc995ccfd1d27c15111ec8987be6
p576
sV29f5022d-940b-457e-9b8b-97be29eaf893
p577
V2523fc995ccfd1d27c15111ec8987be6
p578
sV52510cac-b1a1-494d-a018-4208aa779780
p579
V2523fc995ccfd1d27c15111ec8987be6
p580
sV5789ebca-91bf-4025-8b83-a5471ca09e93
p581
V2523fc995ccfd1d27c15111ec8987be6
p582
sV52e09ed6-fb53-4712-8368-04c4b5d90009
p583
V2523fc995ccfd1d27c15111ec8987be6
p584
sV829a6da6-b22e-4d69-bdb1-c421cb7e116a
p585
V2523fc995ccfd1d27c15111ec8987be6
p586
sV0348d04a-1d5c-44af-9c8c-4a9cf6b7f421
p587
V2523fc995ccfd1d27c15111ec8987be6
p588
sVbeb68472-6409-4f20-bb36-e47bfe7d2c95
p589
V2523fc995ccfd1d27c15111ec8987be6
p590
sV01778088-9149-4092-9e21-dae673d13a98
p591
V2523fc995ccfd1d27c15111ec8987be6
p592
sVf6255b53-a3b2-47f2-bf57-fae346064d40
p593
V2523fc995ccfd1d27c15111ec8987be6
p594
sV23c7cbc6-ff7b-4620-a558-902e1e981fcd
p595
V2523fc995ccfd1d27c15111ec8987be6
p596
sVfe691f5c-5caa-4fe8-919a-7e2ef97d8d27
p597
V2523fc995ccfd1d27c15111ec8987be6
p598
sVdc51df60-f7b4-45cf-af4f-9add2efbd2ba
p599
V2523fc995ccfd1d27c15111ec8987be6
p600
sV1d1f7d5b-a1a8-4c65-8c30-47d338445f8a
p601
V2523fc995ccfd1d27c15111ec8987be6
p602
sVccbba58c-40d4-4b35-b898-49b420c659b9
p603
V2523fc995ccfd1d27c15111ec8987be6
p604
sV5ee5fdb1-937f-49eb-b382-57a3389a7804
p605
V2523fc995ccfd1d27c15111ec8987be6
p606
sV7fa22178-55e4-45f1-b5dd-ed69fea9e37f
p607
V2523fc995ccfd1d27c15111ec8987be6
p608
sV9a69b2ed-4ec0-46a6-98df-80dd6aa6906a
p609
V2523fc995ccfd1d27c15111ec8987be6
p610
sV79d36ae8-608c-4ca3-8307-ea6f0eed1288
p611
V2523fc995ccfd1d27c15111ec8987be6
p612
sV3377326e-5ef5-4142-b2e6-42d9fb965bd0
p613
V2523fc995ccfd1d27c15111ec8987be6
p614
sV3196d00e-98e9-4463-9f9e-25bf73a84ec7
p615
V2523fc995ccfd1d27c15111ec8987be6
p616
sV89b5333c-af54-425d-b1a9-b500b7843a1b
p617
V2523fc995ccfd1d27c15111ec8987be6
p618
sV3d6aab12-1142-4322-bb4c-84f21af49853
p619
V2523fc995ccfd1d27c15111ec8987be6
p620
sV23eeea5d-4bf0-4a05-b40f-0c8c1dadd9c7
p621
V2523fc995ccfd1d27c15111ec8987be6
p622
sV099eb0a3-a320-47ae-baee-536b2dbc3770
p623
V2523fc995ccfd1d27c15111ec8987be6
p624
sV44523320-d534-4036-a09a-7ca51b0975f1
p625
V2523fc995ccfd1d27c15111ec8987be6
p626
sVa4f37b7f-f00d-46c6-aa29-4173ccab2229
p627
V2523fc995ccfd1d27c15111ec8987be6
p628
sV6104b446-42c1-4f4f-8b11-bba85388058a
p629
V2523fc995ccfd1d27c15111ec8987be6
p630
sVe9207abc-c152-433c-be64-d954b4591c7e
p631
V2523fc995ccfd1d27c15111ec8987be6
p632
sVb5cbda87-387f-434f-9599-279ceeb5596a
p633
V2523fc995ccfd1d27c15111ec8987be6
p634
sVfacda7b3-ef74-4391-8de2-cdfb6ad889bd
p635
V2523fc995ccfd1d27c15111ec8987be6
p636
sV4c76bef8-37d9-4a64-be4b-f3f150c4157e
p637
V2523fc995ccfd1d27c15111ec8987be6
p638
sVb627d6fb-b404-430a-9907-4c0b6381a88c
p639
V2523fc995ccfd1d27c15111ec8987be6
p640
sVdcb86641-ec44-4e3b-9f4c-d19cc2cbae64
p641
V2523fc995ccfd1d27c15111ec8987be6
p642
sV982d6d63-f243-40a0-bbe1-fc6be80e072b
p643
V2523fc995ccfd1d27c15111ec8987be6
p644
sVdbe6a879-bab8-4730-af76-4bf0d5a22d1a
p645
V2523fc995ccfd1d27c15111ec8987be6
p646
sVbe56fa11-128b-403e-86d4-67db3d42bc5f
p647
V2523fc995ccfd1d27c15111ec8987be6
p648
sV46ca8d3a-fd86-432c-88d4-353f9d9565f0
p649
V2523fc995ccfd1d27c15111ec8987be6
p650
sV64d1c8da-294b-4a46-b728-af62edc0b7b9
p651
V2523fc995ccfd1d27c15111ec8987be6
p652
sV68303152-c0cb-45f6-8cb6-9cbcd11fa537
p653
V2523fc995ccfd1d27c15111ec8987be6
p654
sVbc995b91-4711-43f3-872b-dfcc7cc527d2
p655
V2523fc995ccfd1d27c15111ec8987be6
p656
sV76e66acd-407e-41bb-bbcb-d9c028f4e46e
p657
V2523fc995ccfd1d27c15111ec8987be6
p658
sVcbe0cbc1-23a7-453c-bdce-faf92f60eb50
p659
V2523fc995ccfd1d27c15111ec8987be6
p660
sV4545c416-740a-4f7c-b67e-3627b7177630
p661
V2523fc995ccfd1d27c15111ec8987be6
p662
sVcc9815a8-f69a-4642-9bf7-2e41161b17ef
p663
V2523fc995ccfd1d27c15111ec8987be6
p664
sV5308c80d-bf28-41a5-be10-866dd3f6dafb
p665
V2523fc995ccfd1d27c15111ec8987be6
p666
sVacd20d84-529b-46a0-9f27-a7c550bb1d9e
p667
V2523fc995ccfd1d27c15111ec8987be6
p668
sV441e028f-40bd-4640-8907-87edc4a44694
p669
V2523fc995ccfd1d27c15111ec8987be6
p670
sV007c4e78-ba30-439a-a1d2-b70f055d90cf
p671
V2523fc995ccfd1d27c15111ec8987be6
p672
sVdd427bc4-75bd-4f44-a285-f7a0b180cb05
p673
V2523fc995ccfd1d27c15111ec8987be6
p674
sVc64607d4-9748-4bdc-97c9-66cf4f4516be
p675
V2523fc995ccfd1d27c15111ec8987be6
p676
sVececfe63-448d-456e-a6de-9e721078d509
p677
V2523fc995ccfd1d27c15111ec8987be6
p678
sVddad5a16-f1e0-41f3-bf4e-4de8fb9198de
p679
V2523fc995ccfd1d27c15111ec8987be6
p680
sVeba29aec-cd19-4573-b775-20e5d8661683
p681
V2523fc995ccfd1d27c15111ec8987be6
p682
sVfa972b32-df47-49ee-a78d-53f5db8176f5
p683
V2523fc995ccfd1d27c15111ec8987be6
p684
sV234d3491-f412-4a24-ace0-bba5ca6ae378
p685
V2523fc995ccfd1d27c15111ec8987be6
p686
sVdc0ea4d3-aff7-4110-8149-4b4590e27465
p687
V2523fc995ccfd1d27c15111ec8987be6
p688
sV16825824-ba18-4d34-a9b5-42fa70420b13
p689
V2523fc995ccfd1d27c15111ec8987be6
p690
sVfb58c956-fe8b-4869-8e59-dba5efa24345
p691
V2523fc995ccfd1d27c15111ec8987be6
p692
sVb4076263-560f-4012-b29c-9ff1c70d2053
p693
V2523fc995ccfd1d27c15111ec8987be6
p694
sVd4f4c17d-fe28-4521-aa66-4f080422e141
p695
V2523fc995ccfd1d27c15111ec8987be6
p696
sVa82a212e-b890-45d5-b1bf-94be4a7b68c5
p697
V2523fc995ccfd1d27c15111ec8987be6
p698
sV7139e440-410b-4f22-a675-78eb7b9e6680
p699
V2523fc995ccfd1d27c15111ec8987be6
p700
sV7a7b5dc8-1423-496b-b6c1-51cc78065bbb
p701
V2523fc995ccfd1d27c15111ec8987be6
p702
sV955fe30b-f3a4-4861-96e6-cd43eb58cf25
p703
V2523fc995ccfd1d27c15111ec8987be6
p704
sVce5803ba-9f54-486a-ba11-f690e2e6685d
p705
V2523fc995ccfd1d27c15111ec8987be6
p706
sVab13409b-86fc-4d92-99d5-1f5faaccbadf
p707
V2523fc995ccfd1d27c15111ec8987be6
p708
sV56b62ee1-4eef-4cf3-9d9f-f6fc6867ebc2
p709
V2523fc995ccfd1d27c15111ec8987be6
p710
sV4a34f148-a039-42c1-be05-d74e9a7879d8
p711
V2523fc995ccfd1d27c15111ec8987be6
p712
sVac6eb160-6833-4baf-a925-19e024519be0
p713
V2523fc995ccfd1d27c15111ec8987be6
p714
sV4fa417eb-2d84-4a42-aa3c-dcbd5ad7ebdf
p715
V2523fc995ccfd1d27c15111ec8987be6
p716
sV0713278a-a244-43d5-a88c-476ded1a0311
p717
V2523fc995ccfd1d27c15111ec8987be6
p718
sV2ead3ad2-cf76-446a-85b0-eb37b4c33a41
p719
V2523fc995ccfd1d27c15111ec8987be6
p720
sV1e7a8603-faf8-4a49-aa23-e443a43a4bcf
p721
V2523fc995ccfd1d27c15111ec8987be6
p722
sVef287ffb-976d-4147-aa54-e52b98e40004
p723
V2523fc995ccfd1d27c15111ec8987be6
p724
sV0d371925-d4ee-4f6c-8701-6e6317548cd4
p725
V2523fc995ccfd1d27c15111ec8987be6
p726
sVb3ee5efe-0967-4ebf-9655-2ce59d35e4b4
p727
V2523fc995ccfd1d27c15111ec8987be6
p728
sVbfa5c21b-41d3-4678-8bba-8db847a60bc0
p729
V2523fc995ccfd1d27c15111ec8987be6
p730
sVfee02c27-4e74-40ec-9f69-b4aac01e8133
p731
V2523fc995ccfd1d27c15111ec8987be6
p732
sVbebe2aa9-0c1c-477a-8b6c-2b5be5eeeda0
p733
V2523fc995ccfd1d27c15111ec8987be6
p734
sVc579f1d6-585a-4c62-9c96-8630db92a3fd
p735
V2523fc995ccfd1d27c15111ec8987be6
p736
sV6323edc2-c77f-4ded-b5c3-880e8bdb0c6e
p737
V2523fc995ccfd1d27c15111ec8987be6
p738
sV353c3ebe-a23f-4a25-b793-6f4e1bea214c
p739
V2523fc995ccfd1d27c15111ec8987be6
p740
sVda345510-dd13-407f-b8e2-9c6fdef84c1f
p741
V2523fc995ccfd1d27c15111ec8987be6
p742
sV7edcf865-a684-473c-80bf-b8b6e20a375f
p743
V2523fc995ccfd1d27c15111ec8987be6
p744
sVb1bc1bca-f510-4d04-b9ac-3c22d6aecc96
p745
V2523fc995ccfd1d27c15111ec8987be6
p746
sVafd2da4e-b01d-49f6-8d8c-2eb32e9a3bb6
p747
V2523fc995ccfd1d27c15111ec8987be6
p748
sV98775b90-da9a-4190-8abc-c88fc61682a7
p749
V2523fc995ccfd1d27c15111ec8987be6
p750
sV3d8284c9-2f76-4b20-ba6b-c83ce6223105
p751
V2523fc995ccfd1d27c15111ec8987be6
p752
sV285f04ee-ff06-44e2-9569-53499b114906
p753
V2523fc995ccfd1d27c15111ec8987be6
p754
sV613474ab-bc09-48c5-90b8-477e5748ed17
p755
V2523fc995ccfd1d27c15111ec8987be6
p756
sV437dff7e-52b0-4805-89cd-6f2dcca11815
p757
V2523fc995ccfd1d27c15111ec8987be6
p758
sV28bcd47a-3919-4ba6-8019-dfa0c298b7e9
p759
V2523fc995ccfd1d27c15111ec8987be6
p760
sV3bfcf7ce-08e5-49da-bbfe-16f71104e193
p761
V2523fc995ccfd1d27c15111ec8987be6
p762
sV5d56c8d6-c415-4168-acf9-bdf4419adc7d
p763
V2523fc995ccfd1d27c15111ec8987be6
p764
sVcffeabe2-6618-4ce2-a4ae-d11a4b26845b
p765
V2523fc995ccfd1d27c15111ec8987be6
p766
sV70a7ee3b-c86a-4535-a478-6856dc783f06
p767
V2523fc995ccfd1d27c15111ec8987be6
p768
sVd4a9c511-350b-4c9a-8afe-c9029869532b
p769
V2523fc995ccfd1d27c15111ec8987be6
p770
sV68dde59c-f1cc-4dab-8653-5f6cfa722a7c
p771
V2523fc995ccfd1d27c15111ec8987be6
p772
sV2854acfb-a2d2-4c7a-ae35-40d6703b4c0a
p773
V2523fc995ccfd1d27c15111ec8987be6
p774
sV25fa95d0-f834-4ed4-a135-d4327c83702b
p775
V2523fc995ccfd1d27c15111ec8987be6
p776
sV2a52e375-ffcf-401f-8b5e-5bbf444767ab
p777
V2523fc995ccfd1d27c15111ec8987be6
p778
sV9228415e-eb15-4378-ac04-e23bde24a91e
p779
V2523fc995ccfd1d27c15111ec8987be6
p780
sV3047773f-84ee-4395-af0e-ff1832c64918
p781
V2523fc995ccfd1d27c15111ec8987be6
p782
sV8af7d581-b9c8-42ad-a163-7fe2bc89c7cb
p783
V2523fc995ccfd1d27c15111ec8987be6
p784
sV2950a29d-d7a7-4cdd-a4a7-38d7b2ca09e4
p785
V2523fc995ccfd1d27c15111ec8987be6
p786
sV061eb58b-781f-444a-a034-08f28f107790
p787
V2523fc995ccfd1d27c15111ec8987be6
p788
sV5dd17902-33d4-4c26-b812-1b102d56bbae
p789
V2523fc995ccfd1d27c15111ec8987be6
p790
sV0f614362-1c07-45f0-a624-205896aa056d
p791
V2523fc995ccfd1d27c15111ec8987be6
p792
sV5f3bf890-b501-407e-a013-2de20dcb9312
p793
V2523fc995ccfd1d27c15111ec8987be6
p794
sVdd650ea6-b8ce-4e85-b9bc-144e20fa089a
p795
V2523fc995ccfd1d27c15111ec8987be6
p796
sV2c01934e-d096-4c11-ac04-eb47906c1da8
p797
V2523fc995ccfd1d27c15111ec8987be6
p798
sV19536c84-1e9f-44e7-b53b-9841614c3922
p799
V2523fc995ccfd1d27c15111ec8987be6
p800
sV5c480bc0-88bb-429e-96d6-ff29b0e02855
p801
V2523fc995ccfd1d27c15111ec8987be6
p802
sV1089d6fe-2cd4-4ca2-b643-901b087b17c3
p803
V2523fc995ccfd1d27c15111ec8987be6
p804
sVc3e7eb80-b0d2-49c2-b957-fe5a91848df2
p805
V2523fc995ccfd1d27c15111ec8987be6
p806
sV6d56aa94-c4b2-4e05-bfdc-50f69a3084d5
p807
V2523fc995ccfd1d27c15111ec8987be6
p808
sV54b3cc1a-b4ef-4884-bbc3-077d83484d01
p809
V2523fc995ccfd1d27c15111ec8987be6
p810
sV94f160ba-ae70-4517-a1c9-f345e74a902a
p811
V2523fc995ccfd1d27c15111ec8987be6
p812
sV748699a7-f144-459b-84a9-5266c55991a6
p813
V2523fc995ccfd1d27c15111ec8987be6
p814
sV8f92394b-3b34-4c45-b71c-576aecd2603d
p815
V2523fc995ccfd1d27c15111ec8987be6
p816
sVa40bd2cb-5b3f-4c0b-bd47-9b2d58ca4ab5
p817
V2523fc995ccfd1d27c15111ec8987be6
p818
sV769ca9ee-fbd9-472b-9321-ae48afcc79c5
p819
V2523fc995ccfd1d27c15111ec8987be6
p820
sV99b83434-0d08-4992-83ca-c8041a2c2197
p821
V2523fc995ccfd1d27c15111ec8987be6
p822
sVf9612c84-5848-4c31-aa26-597711668a7d
p823
V2523fc995ccfd1d27c15111ec8987be6
p824
sVa2fce85a-b796-479e-aa1e-c4a453f31de9
p825
V2523fc995ccfd1d27c15111ec8987be6
p826
sVe65cd8ee-b489-4767-a527-afd934cf3b4d
p827
V2523fc995ccfd1d27c15111ec8987be6
p828
sV5a980cb3-e614-4f56-811f-0e9c852c892d
p829
V2523fc995ccfd1d27c15111ec8987be6
p830
sVe29fd76e-dfa2-4e04-bb8b-2cb79a762ca6
p831
V2523fc995ccfd1d27c15111ec8987be6
p832
sVa08f6f10-9885-4d1e-80ec-bb7264895082
p833
V2523fc995ccfd1d27c15111ec8987be6
p834
sV3cea505b-4602-427d-b3cd-3fc0c3d3595a
p835
V2523fc995ccfd1d27c15111ec8987be6
p836
sV67fd8643-5dfd-449f-b42c-f329082e9b05
p837
V2523fc995ccfd1d27c15111ec8987be6
p838
sV3188fdd7-b471-4df1-9b58-29357c65adf0
p839
V2523fc995ccfd1d27c15111ec8987be6
p840
sV89469a82-916e-4c42-9c05-e64ab8de83f3
p841
V2523fc995ccfd1d27c15111ec8987be6
p842
sVf3fe1ee8-046f-4725-ab5b-985178201ba2
p843
V2523fc995ccfd1d27c15111ec8987be6
p844
sVafea0820-4f97-4cab-8705-2f04dc8d1554
p845
V2523fc995ccfd1d27c15111ec8987be6
p846
sVa65134e7-3188-47d4-8294-8d5980432807
p847
V2523fc995ccfd1d27c15111ec8987be6
p848
sVc5586b8c-e11f-4f36-b944-b3044cd1a57f
p849
V2523fc995ccfd1d27c15111ec8987be6
p850
sVed113004-7da7-4396-aa66-bb81319c6fb4
p851
V2523fc995ccfd1d27c15111ec8987be6
p852
sV99df05ba-1e88-482c-834a-254aba1fbac7
p853
V2523fc995ccfd1d27c15111ec8987be6
p854
sV61e14429-1207-4d24-b452-2e167c31245b
p855
V2523fc995ccfd1d27c15111ec8987be6
p856
sV4dc90cfb-9986-4111-978c-8efde29d92a8
p857
V2523fc995ccfd1d27c15111ec8987be6
p858
sV1aff445c-ffd9-4692-820f-f9820c430eb6
p859
V2523fc995ccfd1d27c15111ec8987be6
p860
sVe321617b-ecc2-45e7-accf-e92f0a99a433
p861
V2523fc995ccfd1d27c15111ec8987be6
p862
sVae461bdf-c2c5-4133-bea2-86ea9662e233
p863
V2523fc995ccfd1d27c15111ec8987be6
p864
sV5317a192-0756-4f14-af0c-f1b7432484bd
p865
V2523fc995ccfd1d27c15111ec8987be6
p866
sV2066e096-b21a-4bfc-99f3-6572a01843ed
p867
V2523fc995ccfd1d27c15111ec8987be6
p868
sVfa56096c-1527-4f0f-a23b-73c8771b73eb
p869
V2523fc995ccfd1d27c15111ec8987be6
p870
sV54b0d379-d087-412c-9858-31bce2a4fec1
p871
V2523fc995ccfd1d27c15111ec8987be6
p872
sV79839613-a3ec-4321-a533-05cc5e7a359d
p873
V2523fc995ccfd1d27c15111ec8987be6
p874
sV5e04c2f6-5987-4bca-93a2-ebcb5fb5af66
p875
V2523fc995ccfd1d27c15111ec8987be6
p876
sV78539825-a6d2-4a20-9b3f-a7146274f0f0
p877
V2523fc995ccfd1d27c15111ec8987be6
p878
sVeabfcbee-8177-4f52-a7a2-28e695d00014
p879
V2523fc995ccfd1d27c15111ec8987be6
p880
sV51cf2cf9-6b13-45de-b52a-0cb6c4ce2a50
p881
V2523fc995ccfd1d27c15111ec8987be6
p882
sVac7dbe4b-a01d-4b25-b111-54987115a791
p883
V2523fc995ccfd1d27c15111ec8987be6
p884
sVda023b27-9270-44cf-9d05-1bec72829d7a
p885
V2523fc995ccfd1d27c15111ec8987be6
p886
sV48bed0c5-3931-41b9-b6be-ef27b984c1ea
p887
V2523fc995ccfd1d27c15111ec8987be6
p888
sV07caf331-845a-490d-bf8c-4c7d4e95b77a
p889
V2523fc995ccfd1d27c15111ec8987be6
p890
sVe8894902-1c97-4946-9aec-fb86cdc069dc
p891
V2523fc995ccfd1d27c15111ec8987be6
p892
sV306e0374-aa3e-48d3-bbb9-9b0abf4a25bf
p893
V2523fc995ccfd1d27c15111ec8987be6
p894
sV92e8f502-413c-4a2e-adad-a05ff9fae272
p895
V2523fc995ccfd1d27c15111ec8987be6
p896
sV3cf2a13b-a87e-46a0-95eb-da9f0412418d
p897
V2523fc995ccfd1d27c15111ec8987be6
p898
sV4f0b7742-3e9f-4a5b-815a-bf2e4573570e
p899
V2523fc995ccfd1d27c15111ec8987be6
p900
sV4ad4dc24-b40c-4032-b614-182fa91b57a3
p901
V2523fc995ccfd1d27c15111ec8987be6
p902
sVf21c7d68-8c79-41be-a806-c4ccc06aa573
p903
V2523fc995ccfd1d27c15111ec8987be6
p904
sVa726030e-2bc5-4d63-a238-3ac494240ccb
p905
V2523fc995ccfd1d27c15111ec8987be6
p906
sVac3f2077-f072-4011-92ea-7c31310c1895
p907
V2523fc995ccfd1d27c15111ec8987be6
p908
sVdf25504d-fb61-4c39-abc3-c3c523e4b91e
p909
V2523fc995ccfd1d27c15111ec8987be6
p910
sV27489450-6f97-407d-85bc-38f769726de0
p911
V2523fc995ccfd1d27c15111ec8987be6
p912
sV3148d896-3b70-447b-abf9-eb89e9688526
p913
V2523fc995ccfd1d27c15111ec8987be6
p914
sV408d4a31-128a-4521-8858-8de9b0415dee
p915
V2523fc995ccfd1d27c15111ec8987be6
p916
sV8fd3dcb0-b034-41ad-95cb-c5ffcbf9cca8
p917
V2523fc995ccfd1d27c15111ec8987be6
p918
sVc579ad86-d7f5-4b48-b9d8-c9a46c48c460
p919
V2523fc995ccfd1d27c15111ec8987be6
p920
sVeeefb677-84e1-47b9-a9f2-091337202605
p921
V2523fc995ccfd1d27c15111ec8987be6
p922
sV71b7d292-7095-4aa6-a7c7-c6d26df879c5
p923
V2523fc995ccfd1d27c15111ec8987be6
p924
sVd1ed1cd0-c519-4e8a-ac90-f13bf5043b92
p925
V2523fc995ccfd1d27c15111ec8987be6
p926
sVefe24548-a664-434b-855d-b7c2589c5b0b
p927
V2523fc995ccfd1d27c15111ec8987be6
p928
sV8522f7f9-477c-4faa-8b8d-037db35e27a3
p929
V2523fc995ccfd1d27c15111ec8987be6
p930
sV2147d134-5ed8-4f92-bd9e-3e2e08759963
p931
V2523fc995ccfd1d27c15111ec8987be6
p932
sV8ac27bdb-5ddf-4631-b2b8-29fa40e02bf9
p933
V2523fc995ccfd1d27c15111ec8987be6
p934
sVf594e147-11fd-48fe-846e-319dbad66f74
p935
V2523fc995ccfd1d27c15111ec8987be6
p936
sVa2bd933f-b5be-45b3-8c62-4d055ceb685c
p937
V2523fc995ccfd1d27c15111ec8987be6
p938
sV19b6077e-1b8b-49dd-9b1a-61b7a5230a70
p939
V2523fc995ccfd1d27c15111ec8987be6
p940
sVeca8cc8e-5e0c-45ed-bf74-c4e04b095c92
p941
V2523fc995ccfd1d27c15111ec8987be6
p942
sVb1839ef1-1854-4387-8943-f22a11327351
p943
V2523fc995ccfd1d27c15111ec8987be6
p944
sVe43253b7-b1d3-4d97-971a-ae4bd650fb9c
p945
V2523fc995ccfd1d27c15111ec8987be6
p946
sV3f80262d-ee1d-4556-8d19-0e25d6b82303
p947
V2523fc995ccfd1d27c15111ec8987be6
p948
sVbc895317-0dbe-4f5a-950e-ef38e5b31b54
p949
V2523fc995ccfd1d27c15111ec8987be6
p950
sVac5a6407-ec4a-4d5b-89a2-671ea1c52a30
p951
V2523fc995ccfd1d27c15111ec8987be6
p952
sVc477cf40-53bc-4501-b029-1390e319d3ed
p953
V2523fc995ccfd1d27c15111ec8987be6
p954
sV022bef78-0e81-4313-9a03-b72af6644278
p955
V2523fc995ccfd1d27c15111ec8987be6
p956
sVf235128b-2d6c-4bbf-9a18-237af8318384
p957
V2523fc995ccfd1d27c15111ec8987be6
p958
sV53c25dac-8ce1-4097-b1a1-d790df65e99a
p959
V2523fc995ccfd1d27c15111ec8987be6
p960
sVea802db1-d646-4766-9a0b-764571f695f8
p961
V2523fc995ccfd1d27c15111ec8987be6
p962
sV53553993-b042-4364-b1a8-6a15a5bcd452
p963
V2523fc995ccfd1d27c15111ec8987be6
p964
sVce462826-d4e5-4698-9e6b-f68d4d46d200
p965
V2523fc995ccfd1d27c15111ec8987be6
p966
sV3c984691-e15a-45b5-81fa-ff77aeac80e8
p967
V2523fc995ccfd1d27c15111ec8987be6
p968
sV8e7eb7b6-3c36-4134-91ef-50315a5d51a9
p969
V2523fc995ccfd1d27c15111ec8987be6
p970
sVc5e62e27-63f4-4915-acf8-694445e8d8b3
p971
V2523fc995ccfd1d27c15111ec8987be6
p972
sV9a5671ca-8988-4726-bfc3-3e9998a7418c
p973
V2523fc995ccfd1d27c15111ec8987be6
p974
sV37d6b234-1e30-4a88-942a-78e4799101c5
p975
V2523fc995ccfd1d27c15111ec8987be6
p976
sVdcfb5d14-d02f-4cb9-94aa-f0db3f0507cc
p977
V2523fc995ccfd1d27c15111ec8987be6
p978
sVfd10d663-d399-4704-9112-dcdd300e0e94
p979
V2523fc995ccfd1d27c15111ec8987be6
p980
sV073ebb3f-51e5-4ad9-9756-8b8e17517d95
p981
V2523fc995ccfd1d27c15111ec8987be6
p982
sV91970dfb-5e1e-419b-ab74-95a1f74246d8
p983
V2523fc995ccfd1d27c15111ec8987be6
p984
sVbde65726-c886-4408-aa3b-da1da86ec099
p985
V2523fc995ccfd1d27c15111ec8987be6
p986
sVd2ccbf90-26ce-4217-9cb8-c3a0b89861aa
p987
V2523fc995ccfd1d27c15111ec8987be6
p988
sVc8e9323a-45e2-4fe3-b17c-c76321adc16a
p989
V2523fc995ccfd1d27c15111ec8987be6
p990
sVb8c5333f-01ae-4667-a35c-b46c14b5fb7e
p991
V2523fc995ccfd1d27c15111ec8987be6
p992
sV7add1cf4-738a-4100-a511-3d37b94f2ac5
p993
V2523fc995ccfd1d27c15111ec8987be6
p994
sV846f98f8-2cc8-422f-8fe1-277948b8fe60
p995
V2523fc995ccfd1d27c15111ec8987be6
p996
sVa3737c51-bb6c-4a2d-be09-9fd8eaebe2bd
p997
V2523fc995ccfd1d27c15111ec8987be6
p998
sVdf091792-de96-41a4-9cd4-b310a43490a2
p999
V2523fc995ccfd1d27c15111ec8987be6
p1000
sV1e838b34-1249-44f8-aa9c-ff679718a7e4
p1001
V2523fc995ccfd1d27c15111ec8987be6
p1002
sV17fd8d87-c215-40a6-a69c-5a83be911393
p1003
V2523fc995ccfd1d27c15111ec8987be6
p1004
sV6acda283-72d0-42cf-969b-af2ae8794802
p1005
V2523fc995ccfd1d27c15111ec8987be6
p1006
sV4f250384-1709-458c-bf6d-1db5aa396eec
p1007
V2523fc995ccfd1d27c15111ec8987be6
p1008
sV5577695c-23bc-4d7d-bab7-418d27a1a9c1
p1009
V2523fc995ccfd1d27c15111ec8987be6
p1010
sVee4bfff7-da6b-451c-b154-5f3322043012
p1011
V2523fc995ccfd1d27c15111ec8987be6
p1012
sV3479536c-cc9e-4aeb-a493-2b3cca9fe9be
p1013
V2523fc995ccfd1d27c15111ec8987be6
p1014
sV03d9806a-e7e8-4905-a9cb-24d98a8e03c7
p1015
V2523fc995ccfd1d27c15111ec8987be6
p1016
sVe41e22b8-3977-474a-b529-e0977f062d9a
p1017
V2523fc995ccfd1d27c15111ec8987be6
p1018
sV872b071e-0b70-4b20-8b7e-d9cb7074f425
p1019
V2523fc995ccfd1d27c15111ec8987be6
p1020
sV366d0b74-7919-4c10-a3c9-38e459ee1c45
p1021
V2523fc995ccfd1d27c15111ec8987be6
p1022
sV202981b7-21d0-4da3-a139-54c8d054e0d3
p1023
V2523fc995ccfd1d27c15111ec8987be6
p1024
sV6b5b1dd6-f6ba-4075-8338-f0fb637c0d36
p1025
V2523fc995ccfd1d27c15111ec8987be6
p1026
sV8e179373-cbb7-49ed-9e58-28d9922d358a
p1027
V2523fc995ccfd1d27c15111ec8987be6
p1028
sV14a1a1a0-be4b-470c-ae31-32aee26f16e2
p1029
V2523fc995ccfd1d27c15111ec8987be6
p1030
sV7401bb2c-d99f-4900-8ae4-61617a9d623b
p1031
V2523fc995ccfd1d27c15111ec8987be6
p1032
ss.