(dp0
S'person_caseid_dict'
p1
(dp2
V10000000120996
p3
V0f614362-1c07-45f0-a624-205896aa056d
p4
sV10000000120997
p5
Vaade9403-8035-41de-bb49-6ffc8450f073
p6
sV10000000120994
p7
Vafd2da4e-b01d-49f6-8d8c-2eb32e9a3bb6
p8
sV10000000120995
p9
V3d8284c9-2f76-4b20-ba6b-c83ce6223105
p10
sV10000000120992
p11
V67fd8643-5dfd-449f-b42c-f329082e9b05
p12
sV10000000120993
p13
V778939fb-159b-4a6e-8a3c-015061c0cc9d
p14
sV10000000120990
p15
V2f6a8c81-8cf9-4c7f-aefa-f09b8c572912
p16
sV10000000120991
p17
V1c84b5d3-72d3-4ad0-a9df-a7b2a1984e96
p18
sV10000000120998
p19
Vaa7c4d59-3f24-418c-a8de-598ad45e1d6d
p20
sV10000000120714
p21
V748699a7-f144-459b-84a9-5266c55991a6
p22
sV10000000120715
p23
V41813544-5313-469a-9701-a9a7338aef85
p24
sV10000000120716
p25
Vb54a0cfa-00b5-4271-8315-18c583c52faa
p26
sV10000000120717
p27
Vbfa5c21b-41d3-4678-8bba-8db847a60bc0
p28
sV10000000120710
p29
V37d6b234-1e30-4a88-942a-78e4799101c5
p30
sV10000000120711
p31
Vc4dc5a57-134f-4fc6-8099-286d7d66aa50
p32
sV10000000120712
p33
V23122059-8135-4f47-a898-896f4116ad42
p34
sV10000000120713
p35
Vcb6cdc9f-a7c8-4aa9-a740-dd910ca8c8be
p36
sV10000000121021
p37
V4a34f148-a039-42c1-be05-d74e9a7879d8
p38
sV10000000121020
p39
V872b071e-0b70-4b20-8b7e-d9cb7074f425
p40
sV10000000120914
p41
V23eeea5d-4bf0-4a05-b40f-0c8c1dadd9c7
p42
sV10000000120915
p43
V1d1aff66-2b54-46ef-b201-d0bc0e3b4eaf
p44
sV10000000120912
p45
Vbc895317-0dbe-4f5a-950e-ef38e5b31b54
p46
sV10000000120913
p47
V14a1a1a0-be4b-470c-ae31-32aee26f16e2
p48
sV10000000120910
p49
Ve65cd8ee-b489-4767-a527-afd934cf3b4d
p50
sV10000000120911
p51
V073ebb3f-51e5-4ad9-9756-8b8e17517d95
p52
sV10000000120893
p53
Vfa972b32-df47-49ee-a78d-53f5db8176f5
p54
sV10000000120654
p55
V89b5333c-af54-425d-b1a9-b500b7843a1b
p56
sV10000000120657
p57
Vfacda7b3-ef74-4391-8de2-cdfb6ad889bd
p58
sV10000000120656
p59
V457281a1-fe23-4571-a62a-3bc5984aa381
p60
sV10000000120651
p61
V437dff7e-52b0-4805-89cd-6f2dcca11815
p62
sV10000000120650
p63
Vea802db1-d646-4766-9a0b-764571f695f8
p64
sV10000000120653
p65
V23c7cbc6-ff7b-4620-a558-902e1e981fcd
p66
sV10000000120652
p67
Vc579ad86-d7f5-4b48-b9d8-c9a46c48c460
p68
sV10000000120659
p69
V7edcf865-a684-473c-80bf-b8b6e20a375f
p70
sV10000000120658
p71
Vf46a3a71-5ada-4a93-9ffc-0fac37e31bff
p72
sV10000000120792
p73
V90f2ff65-5341-4528-aa31-00f2d492ff6e
p74
sV10000000119589
p75
V47fab35f-343e-408f-bf2b-4b27a771e26d
p76
sV10000000120892
p77
V87721c37-ea1e-460c-bbe0-90d9e6a0bffc
p78
sV10000000119594
p79
Vce462826-d4e5-4698-9e6b-f68d4d46d200
p80
sV10000000119595
p81
V2678f951-892a-4c81-b2a8-e3e48dca1939
p82
sV10000000119592
p83
V69ba5238-9ae4-4e17-8df2-58410b3fa769
p84
sV10000000119593
p85
V39d48180-e2eb-4fa8-bfe8-46fd5e2d87dd
p86
sV10000000119590
p87
V4f250384-1709-458c-bf6d-1db5aa396eec
p88
sV10000000119591
p89
V5dd17902-33d4-4c26-b812-1b102d56bbae
p90
sV10000000128093
p91
V4abe6064-4f3c-431e-82de-302fd374ed13
p92
sV10000000120808
p93
Va4f37b7f-f00d-46c6-aa29-4173ccab2229
p94
sV10000000128097
p95
Veb0554b8-0262-4db3-914a-34260c295390
p96
sV10000000120988
p97
V8f92394b-3b34-4c45-b71c-576aecd2603d
p98
sV10000000128095
p99
Vba7de444-7b12-4521-af75-ac402d9b980e
p100
sV10000000128094
p101
V56b62ee1-4eef-4cf3-9d9f-f6fc6867ebc2
p102
sV10000000121014
p103
V81eeda1d-2e70-4b97-ad65-efa6bcfa3fb4
p104
sV10000000121015
p105
V613474ab-bc09-48c5-90b8-477e5748ed17
p106
sV10000000121016
p107
V2147d134-5ed8-4f92-bd9e-3e2e08759963
p108
sV10000000121017
p109
V821e3b97-8501-4cca-8018-cfaa5fa43811
p110
sV10000000120909
p111
V876f6ed7-dfb3-4ea7-a24c-8343a7d30e7a
p112
sV10000000121011
p113
V86b3d93c-6b19-46e9-87de-d31d62e21e07
p114
sV10000000121012
p115
V89469a82-916e-4c42-9c05-e64ab8de83f3
p116
sV10000000121013
p117
V420af9f0-10f6-4bb7-bcc4-1a7b0299783b
p118
sV10000000120709
p119
V9ab5b66c-f37e-4ac9-bf5b-78e7db5f6817
p120
sV10000000120708
p121
Vd3309538-8362-4efa-be6d-128aee4ec540
p122
sV10000000121018
p123
Vac3f2077-f072-4011-92ea-7c31310c1895
p124
sV10000000121019
p125
Vec68f422-6812-48b4-be4b-4535232d0209
p126
sV10000000120660
p127
Vdd650ea6-b8ce-4e85-b9bc-144e20fa089a
p128
sV10000000120661
p129
V6b5b1dd6-f6ba-4075-8338-f0fb637c0d36
p130
sV10000000120662
p131
Vc8e9323a-45e2-4fe3-b17c-c76321adc16a
p132
sV10000000120663
p133
Va086063c-935d-4bc4-a10f-bcbda7dded0a
p134
sV10000000120664
p135
V07caf331-845a-490d-bf8c-4c7d4e95b77a
p136
sV10000000120665
p137
V94f160ba-ae70-4517-a1c9-f345e74a902a
p138
sV10000000120666
p139
V8e294e0c-94e3-48d1-b577-0507d9198e02
p140
sV10000000119288
p141
V8af7d581-b9c8-42ad-a163-7fe2bc89c7cb
p142
sV10000000119289
p143
V81a8fec7-1bea-4f90-a13b-d2529fcabc30
p144
sV10000000119286
p145
V3b40f546-01d4-4818-b8e4-ca5d2abf71a6
p146
sV10000000119287
p147
V2ead3ad2-cf76-446a-85b0-eb37b4c33a41
p148
sV10000000119284
p149
Vecf7ada0-0b34-47f1-b1cb-7af1d311c6b9
p150
sV10000000119285
p151
Vb627d6fb-b404-430a-9907-4c0b6381a88c
p152
sV10000000119587
p153
V52510cac-b1a1-494d-a018-4208aa779780
p154
sV10000000119586
p155
V8522f7f9-477c-4faa-8b8d-037db35e27a3
p156
sV10000000120918
p157
V61d9c31b-d624-455a-b8cd-577e90dfd582
p158
sV10000000124608
p159
Va82a212e-b890-45d5-b1bf-94be4a7b68c5
p160
sV10000000124609
p161
V2950a29d-d7a7-4cdd-a4a7-38d7b2ca09e4
p162
sV10000000124606
p163
V2a39c43b-a9bf-41d4-9439-7b0e2fd93c4d
p164
sV10000000124607
p165
V65e12e9d-c00b-4320-95ef-ede476466acf
p166
sV10000000124604
p167
Vccbba58c-40d4-4b35-b898-49b420c659b9
p168
sV10000000124605
p169
Vb1b69829-b4a6-4638-b701-fe6510ce7c6d
p170
sV10000000124602
p171
V8d8e2554-4048-4cdb-9b34-fa079199432d
p172
sV10000000119588
p173
V3cea505b-4602-427d-b3cd-3fc0c3d3595a
p174
sV10000000124600
p175
Vf235128b-2d6c-4bbf-9a18-237af8318384
p176
sV10000000124601
p177
V99b83434-0d08-4992-83ca-c8041a2c2197
p178
sV10000000120938
p179
V70a7ee3b-c86a-4535-a478-6856dc783f06
p180
sV10000000120939
p181
V24ebf6e8-0328-46f1-9665-79482140df57
p182
sV10000000120679
p183
V3047773f-84ee-4395-af0e-ff1832c64918
p184
sV10000000120678
p185
V0b6e6dea-0234-4d87-bbb8-78a72bccbe7e
p186
sV10000000120932
p187
Vf3fe1ee8-046f-4725-ab5b-985178201ba2
p188
sV10000000120933
p189
Vdbf52aa3-8136-4f52-bbbc-9f137a617e50
p190
sV10000000120934
p191
V14607108-35f3-4fca-8ba6-83cbe33da936
p192
sV10000000120935
p193
V76e66acd-407e-41bb-bbcb-d9c028f4e46e
p194
sV10000000120936
p195
V0e9bb23a-0260-4b2e-b9a4-9ac4522a2827
p196
sV10000000120937
p197
Va8e730ba-d74a-43ff-aeb0-a464449c9c22
p198
sV10000000124593
p199
V7c22ec09-65f4-4226-b553-52327b047889
p200
sV10000000120640
p201
V773bb096-53eb-4aa1-a070-9485f9f0f545
p202
sV10000000128647
p203
Vd616c7df-e3a6-41e3-9665-b7811634b2b1
p204
sV10000000119291
p205
Va66df2dd-243f-4786-9748-867e60507718
p206
sV10000000119290
p207
Vf534d238-217c-49e2-9b2d-baf053451781
p208
sV10000000119293
p209
V9228415e-eb15-4378-ac04-e23bde24a91e
p210
sV10000000119292
p211
V81df9d78-3b46-42a0-90c4-84ec850d528a
p212
sV10000000119294
p213
V8051ef3e-2b06-4aaf-9757-e0940e85551f
p214
sV10000000120655
p215
V353c3ebe-a23f-4a25-b793-6f4e1bea214c
p216
sV10000000124598
p217
Ve41e22b8-3977-474a-b529-e0977f062d9a
p218
sV10000000124599
p219
V099eb0a3-a320-47ae-baee-536b2dbc3770
p220
sV10000000124596
p221
V73fbf381-4376-4dc4-ac43-5d52843f2b5c
p222
sV10000000124597
p223
Vef287ffb-976d-4147-aa54-e52b98e40004
p224
sV10000000124594
p225
V4f0b7742-3e9f-4a5b-815a-bf2e4573570e
p226
sV10000000124595
p227
Va78b58be-2c26-4199-a8d4-1acfb058bfc3
p228
sV10000000124611
p229
V6104b446-42c1-4f4f-8b11-bba85388058a
p230
sV10000000124610
p231
Vf1707292-4207-467e-aa5b-5027baf1e8d2
p232
sV10000000124590
p233
Ve43253b7-b1d3-4d97-971a-ae4bd650fb9c
p234
sV10000000124591
p235
Va40bd2cb-5b3f-4c0b-bd47-9b2d58ca4ab5
p236
sV10000000124592
p237
V4471e14e-008c-48ca-b0b5-85b706264bb1
p238
sV10000000124613
p239
Vcf22af60-6480-4543-8ee0-87f93296b76d
p240
sV10000000124612
p241
V91a0fed2-678d-4077-a8f2-c5a2bfe81c86
p242
sV10000000121076
p243
V54dba461-cb71-4c7f-86c4-aa4423ea8dc1
p244
sV10000000121077
p245
V2f37a0d3-d160-4ab8-8eaf-9bf72e443c32
p246
sV10000000121074
p247
V049de798-2606-4f40-a874-72052a5cf4b6
p248
sV10000000121075
p249
V8c55d7b7-79e7-4424-b76b-0abbee652fab
p250
sV10000000121072
p251
V1e7a8603-faf8-4a49-aa23-e443a43a4bcf
p252
sV10000000121073
p253
Vbf389117-b3d2-422f-a1f1-fe8580e6a85f
p254
sV10000000121070
p255
V1cfc2a18-5003-4e35-b43a-a07fc960ef96
p256
sV10000000121071
p257
Va902f4f1-9244-4be7-b71b-82e2310b9b58
p258
sV10000000121045
p259
V1dfc374f-6edb-4b2a-b2c8-819f4246de13
p260
sV10000000121078
p261
V5a37d671-1ca9-43d7-b7ca-ebd3e4814d16
p262
sV10000000121079
p263
Vee4bfff7-da6b-451c-b154-5f3322043012
p264
sV10000000120682
p265
Vfd5f2a01-0947-44fd-bd4e-62d71a5e3848
p266
sV10000000120683
p267
Ve8894902-1c97-4946-9aec-fb86cdc069dc
p268
sV10000000120680
p269
V82183386-42eb-4f8c-a0d4-66821e613579
p270
sV10000000120681
p271
Veabfcbee-8177-4f52-a7a2-28e695d00014
p272
sV10000000120686
p273
Vce5803ba-9f54-486a-ba11-f690e2e6685d
p274
sV10000000120687
p275
Vc3e7eb80-b0d2-49c2-b957-fe5a91848df2
p276
sV10000000120684
p277
Va726030e-2bc5-4d63-a238-3ac494240ccb
p278
sV10000000120685
p279
V27250873-af26-4897-b5e2-3950db6b6445
p280
sV10000000120688
p281
V7add1cf4-738a-4100-a511-3d37b94f2ac5
p282
sV10000000120689
p283
V91077662-7902-4e0a-b1ac-1e37e7b9de07
p284
sV10000000120804
p285
V61e14429-1207-4d24-b452-2e167c31245b
p286
sV10000000120805
p287
Ve337766a-d2e6-4f2d-89d4-fd97099add4b
p288
sV10000000120806
p289
Vececfe63-448d-456e-a6de-9e721078d509
p290
sV10000000120807
p291
V7d2e2f87-3f2a-46c0-8d3e-58e04d6cca5e
p292
sV10000000124589
p293
V1bce77cc-88ed-46ba-8ea6-7ae8b8e4890a
p294
sV10000000124588
p295
V71b7d292-7095-4aa6-a7c7-c6d26df879c5
p296
sV10000000124585
p297
Vff103474-7986-40e4-be1d-4d32c3a41482
p298
sV10000000124584
p299
Vac5a6407-ec4a-4d5b-89a2-671ea1c52a30
p300
sV10000000124587
p301
V3e38bfe0-55af-4700-8051-f7af0155e43d
p302
sV10000000124586
p303
Ve7492d05-f4a1-4e6a-85d1-b26b1f5c5a57
p304
sV10000000124581
p305
Vdd8c7295-a9e6-4122-ad5f-e30ed34d477a
p306
sV10000000120809
p307
V8be74c70-036d-428a-aa55-fbd7c102dfc9
p308
sV10000000124583
p309
V21f9bfb5-e3f1-48b4-ab47-0aa9c3257d73
p310
sV10000000124582
p311
V3a6c931c-8dce-49a2-9574-f2295240eb6a
p312
sV10000000119321
p313
V1d1f7d5b-a1a8-4c65-8c30-47d338445f8a
p314
sV10000000119320
p315
Vbe56fa11-128b-403e-86d4-67db3d42bc5f
p316
sV10000000120950
p317
Va57fa205-6df7-4dee-be75-be3efcd0bc51
p318
sV10000000119322
p319
V5e7e8aa3-4285-4ca4-b845-c145d9f46b2c
p320
sV10000000120888
p321
Veff04e8a-4b54-49d2-bdd9-f54eb7ef8f59
p322
sV10000000120889
p323
Vfbf5769b-798e-442e-8d74-2fba9b52d54c
p324
sV10000000120884
p325
V44523320-d534-4036-a09a-7ca51b0975f1
p326
sV10000000120885
p327
Vd4f4c17d-fe28-4521-aa66-4f080422e141
p328
sV10000000120886
p329
Vd4b16e6e-b3be-4aba-b741-5f6589b61651
p330
sV10000000120887
p331
Vafea0820-4f97-4cab-8705-2f04dc8d1554
p332
sV10000000121065
p333
V3148d896-3b70-447b-abf9-eb89e9688526
p334
sV10000000121064
p335
V62f4d0fa-5e91-4424-a515-dceae3162448
p336
sV10000000121067
p337
V99df05ba-1e88-482c-834a-254aba1fbac7
p338
sV10000000121066
p339
Va0dff9b7-bcc2-4443-ae9e-2a2e0b8ba704
p340
sV10000000121061
p341
Vfb58c956-fe8b-4869-8e59-dba5efa24345
p342
sV10000000121060
p343
V01778088-9149-4092-9e21-dae673d13a98
p344
sV10000000121063
p345
V711ac4ef-fcc9-48d3-945a-02f222c71350
p346
sV10000000121062
p347
Va2bd933f-b5be-45b3-8c62-4d055ceb685c
p348
sV10000000121069
p349
Vcb0d0108-3862-4e44-ad12-4b35ef4e58f4
p350
sV10000000121068
p351
Vb828bf0b-9c84-427e-9a6d-74891087a156
p352
sV10000000120812
p353
Vb8e04d60-9bff-4642-bf69-f5da71b997d0
p354
sV10000000120811
p355
V202981b7-21d0-4da3-a139-54c8d054e0d3
p356
sV10000000120810
p357
Vba58efa4-2f53-4ab5-a56c-407dd63b9db9
p358
sV10000000119318
p359
V12ba4b47-b9c2-4cff-b4f4-0bb6ecaa6bac
p360
sV10000000119319
p361
V278253aa-63c8-4f7a-b83b-349efc853bef
p362
sV10000000119314
p363
V18a7e8a7-1ee2-4b8f-b45a-322b87a393a3
p364
sV10000000119315
p365
Ve4898b9b-756b-4aee-b699-33f16e853229
p366
sV10000000119316
p367
Vefe24548-a664-434b-855d-b7c2589c5b0b
p368
sV10000000119317
p369
V1aff445c-ffd9-4692-820f-f9820c430eb6
p370
sV10000000128101
p371
Vbde65726-c886-4408-aa3b-da1da86ec099
p372
sV10000000128100
p373
Vb4076263-560f-4012-b29c-9ff1c70d2053
p374
sV10000000119313
p375
V30c9c879-79aa-4682-960e-8c01396043ea
p376
sV10000000120941
p377
V285f04ee-ff06-44e2-9569-53499b114906
p378
sV10000000120940
p379
V8e179373-cbb7-49ed-9e58-28d9922d358a
p380
sV10000000120943
p381
V797d5c4b-0ea3-49a7-a761-d1e8045cd2c6
p382
sV10000000120942
p383
Vf6f635eb-d361-4445-8804-d9e3865b134b
p384
sV10000000120945
p385
V51cf2cf9-6b13-45de-b52a-0cb6c4ce2a50
p386
sV10000000120944
p387
V67c647f5-0c87-4c23-856d-bc7ad83dfd07
p388
sV10000000120947
p389
V924371da-99b2-458c-b299-870727773780
p390
sV10000000120946
p391
V6702b7cc-75f4-40d4-aaa1-5dd897d88367
p392
sV10000000120949
p393
V27489450-6f97-407d-85bc-38f769726de0
p394
sV10000000120948
p395
Vd3afad01-068f-469f-867b-c74a76c3b218
p396
sV10000000120891
p397
Vc1db2a96-ebeb-40c7-b8c3-439dbd75d814
p398
sV10000000120890
p399
V846f98f8-2cc8-422f-8fe1-277948b8fe60
p400
sV10000000120897
p401
V721882a5-c8a8-46a0-a940-bf3ddf5c83c0
p402
sV10000000120896
p403
V4c6f69e1-5b58-46d7-ba13-3eb00506927a
p404
sV10000000120895
p405
V69ee07d2-86b5-4584-86d7-67ce5265673d
p406
sV10000000120894
p407
V9a5671ca-8988-4726-bfc3-3e9998a7418c
p408
sV10000000121050
p409
V7139e440-410b-4f22-a675-78eb7b9e6680
p410
sV10000000121051
p411
Vda345510-dd13-407f-b8e2-9c6fdef84c1f
p412
sV10000000121052
p413
V8e7eb7b6-3c36-4134-91ef-50315a5d51a9
p414
sV10000000121053
p415
Vd099f727-2adc-48a4-a2d7-51c180aeb7e6
p416
sV10000000121054
p417
V1f62b593-6ace-4ed9-9225-f2fa426737c6
p418
sV10000000121055
p419
V3196d00e-98e9-4463-9f9e-25bf73a84ec7
p420
sV10000000121056
p421
V54b0d379-d087-412c-9858-31bce2a4fec1
p422
sV10000000121057
p423
V005a608d-9812-4ed1-b6e2-b98136384cfa
p424
sV10000000121058
p425
V0348d04a-1d5c-44af-9c8c-4a9cf6b7f421
p426
sV10000000121059
p427
V25fa95d0-f834-4ed4-a135-d4327c83702b
p428
sV10000000128099
p429
V6b1ed7d7-d557-4c02-9871-1ef45e704754
p430
sV10000000128098
p431
Vd590ca7f-b73c-47eb-b975-374e13caa1df
p432
sV10000000120637
p433
V19b6077e-1b8b-49dd-9b1a-61b7a5230a70
p434
sV10000000120636
p435
Vbc995b91-4711-43f3-872b-dfcc7cc527d2
p436
sV10000000121049
p437
V17dc8bf3-0cde-4323-b30c-a5c8abab3e26
p438
sV10000000121048
p439
V1baf0b1d-bed9-495f-b195-21a72e2aceb9
p440
sV10000000121047
p441
V5e04c2f6-5987-4bca-93a2-ebcb5fb5af66
p442
sV10000000121046
p443
Va8977a94-af4b-4dae-86ab-62cf51e1acc6
p444
sV10000000120639
p445
Ve78ad62b-25a8-4725-af3d-66e38f0a2a8b
p446
sV10000000120638
p447
V56f9a4a1-d99a-4d1b-bdfc-4b08cb2b050f
p448
sV10000000121043
p449
V9484a6d1-bf04-4981-8a01-5be667c24770
p450
sV10000000121042
p451
V5577695c-23bc-4d7d-bab7-418d27a1a9c1
p452
sV10000000121041
p453
V5ee5fdb1-937f-49eb-b382-57a3389a7804
p454
sV10000000121040
p455
V4dc90cfb-9986-4111-978c-8efde29d92a8
p456
sV10000000121044
p457
V1089d6fe-2cd4-4ca2-b643-901b087b17c3
p458
sV10000000120916
p459
V42b081da-cada-4f86-81db-fb769be3ac9b
p460
sV10000000128646
p461
V0d0c8a89-fc02-4729-be65-39eeeb201106
p462
sV10000000120989
p463
Vfa56096c-1527-4f0f-a23b-73c8771b73eb
p464
sV10000000128644
p465
V924f3238-c23f-4ae0-b648-a82f5a65a8aa
p466
sV10000000128645
p467
Vc579f1d6-585a-4c62-9c96-8630db92a3fd
p468
sV10000000128642
p469
V9ab689e7-7da7-408d-a967-bce673652dbd
p470
sV10000000128643
p471
V022bef78-0e81-4313-9a03-b72af6644278
p472
sV10000000128640
p473
V03d9806a-e7e8-4905-a9cb-24d98a8e03c7
p474
sV10000000128096
p475
V83716ae9-c6d9-4130-b630-f051ff23c5ca
p476
sV10000000121038
p477
Veeefb677-84e1-47b9-a9f2-091337202605
p478
sV10000000121039
p479
Vfabefc35-f100-4b34-b932-9f1ab6ca9da8
p480
sV10000000120917
p481
Vf83f47f9-e8bc-4ef7-80f2-9b58b8d1f18f
p482
sV10000000121036
p483
V7b083ee4-211a-47ee-b8cd-f366ce07035d
p484
sV10000000121037
p485
Vbebe2aa9-0c1c-477a-8b6c-2b5be5eeeda0
p486
sV10000000121035
p487
Vf9612c84-5848-4c31-aa26-597711668a7d
p488
sV10000000120646
p489
V00e1038e-8e78-48a3-bc52-bd92f3332d78
p490
sV10000000120647
p491
V459ee200-e7ad-4f54-8bef-551bd273ef21
p492
sV10000000120644
p493
Vee697888-803d-4b34-8818-f0d9ce512b26
p494
sV10000000120645
p495
Vcbba320a-619e-4169-a267-e5108e9d5860
p496
sV10000000120642
p497
V2d7ac09b-7f92-4064-a788-51d21f23d7a8
p498
sV10000000120643
p499
V8ac27bdb-5ddf-4631-b2b8-29fa40e02bf9
p500
sV10000000128641
p501
Vee03f94a-cd38-485f-a3a4-18176c7bcb6c
p502
sV10000000120641
p503
Vb1bc1bca-f510-4d04-b9ac-3c22d6aecc96
p504
sV10000000120648
p505
Vd9a88398-d9e5-41e0-ba18-0ab841d01e10
p506
sV10000000120649
p507
Vd4a42a3e-c955-4640-bcb4-44ca5f855d52
p508
sV10000000128639
p509
V8ca0a9b0-58cb-4064-bd80-e0a97bb1f11d
p510
sV10000000128638
p511
V6323edc2-c77f-4ded-b5c3-880e8bdb0c6e
p512
sV10000000128637
p513
V234d3491-f412-4a24-ace0-bba5ca6ae378
p514
sV10000000124603
p515
V17964ad9-c3c8-42b3-8bce-14e64945948f
p516
ss.